---
triple:          'arm64-apple-darwin'
binary-path:     run
relocations:
  - { offsetInCU: 0x39, offset: 0x39, size: 0x8, addend: 0x0, symName: __ZN10Randomizer2rdE, symObjAddr: 0x94F8, symBinAddr: 0x100020000, symSize: 0x0 }
  - { offsetInCU: 0x2F4F, offset: 0x2F4F, size: 0x8, addend: 0x0, symName: __ZNSt3__119piecewise_constructE, symObjAddr: 0x9538, symBinAddr: 0x10001B330, symSize: 0x0 }
  - { offsetInCU: 0xD323, offset: 0xD323, size: 0x8, addend: 0x0, symName: __ZNSt3__16copy_nB8ue170006IPKcmPcEENS_9enable_ifIXsr37__has_random_access_iterator_categoryIT_EE5valueET1_E4typeES5_T0_S6_, symObjAddr: 0x28F4, symBinAddr: 0x100006924, symSize: 0x44 }
  - { offsetInCU: 0x13174, offset: 0x13174, size: 0x8, addend: 0x0, symName: __ZNSt3__17advanceB8ue170006INS_21__tree_const_iteratorINS_12__value_typeINS_12basic_stringIcNS_11char_traitsIcEENS_9allocatorIcEEEEdEEPNS_11__tree_nodeIS9_PvEElEEllvEEvRT_T0_, symObjAddr: 0x802C, symBinAddr: 0x10000C05C, symSize: 0x38 }
  - { offsetInCU: 0x134A8, offset: 0x134A8, size: 0x8, addend: 0x0, symName: __ZNSt3__124__put_character_sequenceB8ue170006IcNS_11char_traitsIcEEEERNS_13basic_ostreamIT_T0_EES7_PKS4_m, symObjAddr: 0x8984, symBinAddr: 0x10000C9B4, symSize: 0x1EC }
  - { offsetInCU: 0x15889, offset: 0x15889, size: 0x8, addend: 0x0, symName: __ZNSt3__17getlineB8ue170006IcNS_11char_traitsIcEENS_9allocatorIcEEEERNS_13basic_istreamIT_T0_EES9_RNS_12basic_stringIS6_S7_T1_EE, symObjAddr: 0x498, symBinAddr: 0x1000044C8, symSize: 0x5C }
  - { offsetInCU: 0x15D9E, offset: 0x15D9E, size: 0x8, addend: 0x0, symName: __ZNSt3__17getlineB8ue170006IcNS_11char_traitsIcEENS_9allocatorIcEEEERNS_13basic_istreamIT_T0_EES9_RNS_12basic_stringIS6_S7_T1_EES6_, symObjAddr: 0x61C, symBinAddr: 0x10000464C, symSize: 0x238 }
  - { offsetInCU: 0x15E72, offset: 0x15E72, size: 0x8, addend: 0x0, symName: __ZNSt3__1neB8ue170006ERKNS_14__map_iteratorINS_15__tree_iteratorINS_12__value_typeINS_12basic_stringIcNS_11char_traitsIcEENS_9allocatorIcEEEEiEEPNS_11__tree_nodeIS9_PvEElEEEESH_, symObjAddr: 0xB78, symBinAddr: 0x100004BA8, symSize: 0x30 }
  - { offsetInCU: 0x15EAF, offset: 0x15EAF, size: 0x8, addend: 0x0, symName: __ZNSt3__13getB8ue170006ILm0EKNS_12basic_stringIcNS_11char_traitsIcEENS_9allocatorIcEEEEiEERKNS_13tuple_elementIXT_ENS_4pairIT0_T1_EEE4typeERKSC_, symObjAddr: 0xBD0, symBinAddr: 0x100004C00, symSize: 0x24 }
  - { offsetInCU: 0x15EF9, offset: 0x15EF9, size: 0x8, addend: 0x0, symName: __ZNSt3__13getB8ue170006ILm1EKNS_12basic_stringIcNS_11char_traitsIcEENS_9allocatorIcEEEEiEERKNS_13tuple_elementIXT_ENS_4pairIT0_T1_EEE4typeERKSC_, symObjAddr: 0xBF4, symBinAddr: 0x100004C24, symSize: 0x24 }
  - { offsetInCU: 0x15F43, offset: 0x15F43, size: 0x8, addend: 0x0, symName: __ZNSt3__1neB8ue170006ERKNS_14__map_iteratorINS_15__tree_iteratorINS_12__value_typeINS_12basic_stringIcNS_11char_traitsIcEENS_9allocatorIcEEEEdEEPNS_11__tree_nodeIS9_PvEElEEEESH_, symObjAddr: 0xF74, symBinAddr: 0x100004FA4, symSize: 0x30 }
  - { offsetInCU: 0x15F80, offset: 0x15F80, size: 0x8, addend: 0x0, symName: __ZNSt3__1plB8ue170006IcNS_11char_traitsIcEENS_9allocatorIcEEEENS_12basic_stringIT_T0_T1_EERKS9_SB_, symObjAddr: 0x1428, symBinAddr: 0x100005458, symSize: 0x134 }
  - { offsetInCU: 0x16021, offset: 0x16021, size: 0x8, addend: 0x0, symName: __ZNSt3__1lsB8ue170006INS_11char_traitsIcEEEERNS_13basic_ostreamIcT_EES6_PKc, symObjAddr: 0x160C, symBinAddr: 0x10000563C, symSize: 0x48 }
  - { offsetInCU: 0x16067, offset: 0x16067, size: 0x8, addend: 0x0, symName: __ZNSt3__1lsB8ue170006IcNS_11char_traitsIcEENS_9allocatorIcEEEERNS_13basic_ostreamIT_T0_EES9_RKNS_12basic_stringIS6_S7_T1_EE, symObjAddr: 0x1654, symBinAddr: 0x100005684, symSize: 0x4C }
  - { offsetInCU: 0x160BF, offset: 0x160BF, size: 0x8, addend: 0x0, symName: __ZNSt3__118__constexpr_strlenB8ue170006EPKc, symObjAddr: 0x1858, symBinAddr: 0x100005888, symSize: 0x24 }
  - { offsetInCU: 0x16165, offset: 0x16165, size: 0x8, addend: 0x0, symName: __ZNSt3__18distanceB8ue170006IPKcEENS_15iterator_traitsIT_E15difference_typeES4_S4_, symObjAddr: 0x1DD0, symBinAddr: 0x100005E00, symSize: 0x2C }
  - { offsetInCU: 0x161A8, offset: 0x161A8, size: 0x8, addend: 0x0, symName: __ZNSt3__110__distanceB8ue170006IPKcEENS_15iterator_traitsIT_E15difference_typeES4_S4_NS_26random_access_iterator_tagE, symObjAddr: 0x1F40, symBinAddr: 0x100005F70, symSize: 0x20 }
  - { offsetInCU: 0x161F5, offset: 0x161F5, size: 0x8, addend: 0x0, symName: __ZNSt3__119__allocate_at_leastB8ue170006INS_9allocatorIcEEEENS_19__allocation_resultINS_16allocator_traitsIT_E7pointerEEERS5_m, symObjAddr: 0x20C0, symBinAddr: 0x1000060F0, symSize: 0x40 }
  - { offsetInCU: 0x16424, offset: 0x16424, size: 0x8, addend: 0x0, symName: __ZNSt3__120__throw_length_errorB8ue170006EPKc, symObjAddr: 0x2360, symBinAddr: 0x100006390, symSize: 0x64 }
  - { offsetInCU: 0x1644E, offset: 0x1644E, size: 0x8, addend: 0x0, symName: __ZNSt3__117__libcpp_allocateB8ue170006Emm, symObjAddr: 0x24D0, symBinAddr: 0x100006500, symSize: 0x60 }
  - { offsetInCU: 0x164A8, offset: 0x164A8, size: 0x8, addend: 0x0, symName: __ZNSt3__124__is_overaligned_for_newB8ue170006Em, symObjAddr: 0x2530, symBinAddr: 0x100006560, symSize: 0x20 }
  - { offsetInCU: 0x164D6, offset: 0x164D6, size: 0x8, addend: 0x0, symName: __ZNSt3__121__libcpp_operator_newB8ue170006IJmSt11align_val_tEEEPvDpT_, symObjAddr: 0x2550, symBinAddr: 0x100006580, symSize: 0x2C }
  - { offsetInCU: 0x16523, offset: 0x16523, size: 0x8, addend: 0x0, symName: __ZNSt3__121__libcpp_operator_newB8ue170006IJmEEEPvDpT_, symObjAddr: 0x257C, symBinAddr: 0x1000065AC, symSize: 0x24 }
  - { offsetInCU: 0x1655C, offset: 0x1655C, size: 0x8, addend: 0x0, symName: __ZNSt3__112__to_addressB8ue170006IcEEPT_S2_, symObjAddr: 0x2664, symBinAddr: 0x100006694, symSize: 0x14 }
  - { offsetInCU: 0x16591, offset: 0x16591, size: 0x8, addend: 0x0, symName: __ZNSt3__14copyB8ue170006IPKcPcEET0_T_S5_S4_, symObjAddr: 0x2938, symBinAddr: 0x100006968, symSize: 0x40 }
  - { offsetInCU: 0x165EB, offset: 0x165EB, size: 0x8, addend: 0x0, symName: __ZNSt3__16__copyB8ue170006INS_17_ClassicAlgPolicyEPKcS3_PcEENS_4pairIT0_T2_EES6_T1_S7_, symObjAddr: 0x2978, symBinAddr: 0x1000069A8, symSize: 0x44 }
  - { offsetInCU: 0x16657, offset: 0x16657, size: 0x8, addend: 0x0, symName: __ZNSt3__123__dispatch_copy_or_moveB8ue170006INS_17_ClassicAlgPolicyENS_11__copy_loopIS1_EENS_14__copy_trivialEPKcS6_PcEENS_4pairIT2_T4_EES9_T3_SA_, symObjAddr: 0x29BC, symBinAddr: 0x1000069EC, symSize: 0x44 }
  - { offsetInCU: 0x166D5, offset: 0x166D5, size: 0x8, addend: 0x0, symName: __ZNSt3__121__unwrap_and_dispatchB8ue170006INS_10__overloadINS_11__copy_loopINS_17_ClassicAlgPolicyEEENS_14__copy_trivialEEEPKcS8_PcLi0EEENS_4pairIT0_T2_EESB_T1_SC_, symObjAddr: 0x2A00, symBinAddr: 0x100006A30, symSize: 0xB4 }
  - { offsetInCU: 0x16763, offset: 0x16763, size: 0x8, addend: 0x0, symName: __ZNSt3__114__unwrap_rangeB8ue170006IPKcS2_EEDaT_T0_, symObjAddr: 0x2AB4, symBinAddr: 0x100006AE4, symSize: 0x3C }
  - { offsetInCU: 0x168F8, offset: 0x168F8, size: 0x8, addend: 0x0, symName: __ZNSt3__113__unwrap_iterB8ue170006IPcNS_18__unwrap_iter_implIS1_Lb1EEELi0EEEDTclsrT0_8__unwrapclsr3stdE7declvalIT_EEEES5_, symObjAddr: 0x2B38, symBinAddr: 0x100006B68, symSize: 0x24 }
  - { offsetInCU: 0x1693C, offset: 0x1693C, size: 0x8, addend: 0x0, symName: __ZNSt3__19make_pairB8ue170006IPKcPcEENS_4pairINS_18__unwrap_ref_decayIT_E4typeENS5_IT0_E4typeEEEOS6_OS9_, symObjAddr: 0x2B5C, symBinAddr: 0x100006B8C, symSize: 0x38 }
  - { offsetInCU: 0x1698B, offset: 0x1698B, size: 0x8, addend: 0x0, symName: __ZNSt3__114__rewrap_rangeB8ue170006IPKcS2_S2_EET0_S3_T1_, symObjAddr: 0x2B94, symBinAddr: 0x100006BC4, symSize: 0x2C }
  - { offsetInCU: 0x169E0, offset: 0x169E0, size: 0x8, addend: 0x0, symName: __ZNSt3__113__rewrap_iterB8ue170006IPcS1_NS_18__unwrap_iter_implIS1_Lb1EEEEET_S4_T0_, symObjAddr: 0x2BC0, symBinAddr: 0x100006BF0, symSize: 0x3C }
  - { offsetInCU: 0x16B51, offset: 0x16B51, size: 0x8, addend: 0x0, symName: __ZNSt3__113__unwrap_iterB8ue170006IPKcNS_18__unwrap_iter_implIS2_Lb1EEELi0EEEDTclsrT0_8__unwrapclsr3stdE7declvalIT_EEEES6_, symObjAddr: 0x2C54, symBinAddr: 0x100006C84, symSize: 0x24 }
  - { offsetInCU: 0x16BE8, offset: 0x16BE8, size: 0x8, addend: 0x0, symName: __ZNSt3__112__to_addressB8ue170006IKcEEPT_S3_, symObjAddr: 0x2CD8, symBinAddr: 0x100006D08, symSize: 0x14 }
  - { offsetInCU: 0x16C1D, offset: 0x16C1D, size: 0x8, addend: 0x0, symName: __ZNSt3__119__copy_trivial_implB8ue170006IKccEENS_4pairIPT_PT0_EES4_S4_S6_, symObjAddr: 0x2D20, symBinAddr: 0x100006D50, symSize: 0x78 }
  - { offsetInCU: 0x16C85, offset: 0x16C85, size: 0x8, addend: 0x0, symName: __ZNSt3__119__constexpr_memmoveB8ue170006IcKcLi0EEEPT_S3_PT0_NS_15__element_countE, symObjAddr: 0x2D98, symBinAddr: 0x100006DC8, symSize: 0x64 }
  - { offsetInCU: 0x16CF3, offset: 0x16CF3, size: 0x8, addend: 0x0, symName: __ZNSt3__19make_pairB8ue170006IRPKcPcEENS_4pairINS_18__unwrap_ref_decayIT_E4typeENS6_IT0_E4typeEEEOS7_OSA_, symObjAddr: 0x2DFC, symBinAddr: 0x100006E2C, symSize: 0x38 }
  - { offsetInCU: 0x16D95, offset: 0x16D95, size: 0x8, addend: 0x0, symName: __ZNSt3__113__rewrap_iterB8ue170006IPKcS2_NS_18__unwrap_iter_implIS2_Lb1EEEEET_S5_T0_, symObjAddr: 0x2F64, symBinAddr: 0x100006F94, symSize: 0x3C }
  - { offsetInCU: 0x16E1D, offset: 0x16E1D, size: 0x8, addend: 0x0, symName: __ZNSt3__16fill_nB8ue170006IPcmcEET_S2_T0_RKT1_, symObjAddr: 0x30E8, symBinAddr: 0x100007118, symSize: 0x44 }
  - { offsetInCU: 0x16E80, offset: 0x16E80, size: 0x8, addend: 0x0, symName: __ZNSt3__18__fill_nB8ue170006IPcmcEET_S2_T0_RKT1_, symObjAddr: 0x312C, symBinAddr: 0x10000715C, symSize: 0x64 }
  - { offsetInCU: 0x16EE3, offset: 0x16EE3, size: 0x8, addend: 0x0, symName: __ZNSt3__121__convert_to_integralB8ue170006Em, symObjAddr: 0x3190, symBinAddr: 0x1000071C0, symSize: 0x14 }
  - { offsetInCU: 0x16F42, offset: 0x16F42, size: 0x8, addend: 0x0, symName: __ZNSt3__110destroy_atB8ue170006INS_4pairIKNS_12basic_stringIcNS_11char_traitsIcEENS_9allocatorIcEEEEiEELi0EEEvPT_, symObjAddr: 0x3870, symBinAddr: 0x1000078A0, symSize: 0x24 }
  - { offsetInCU: 0x16F79, offset: 0x16F79, size: 0x8, addend: 0x0, symName: __ZNSt3__112__destroy_atB8ue170006INS_4pairIKNS_12basic_stringIcNS_11char_traitsIcEENS_9allocatorIcEEEEiEELi0EEEvPT_, symObjAddr: 0x3894, symBinAddr: 0x1000078C4, symSize: 0x24 }
  - { offsetInCU: 0x16FB0, offset: 0x16FB0, size: 0x8, addend: 0x0, symName: __ZNSt3__17launderB8ue170006INS_4pairIKNS_12basic_stringIcNS_11char_traitsIcEENS_9allocatorIcEEEEiEEEEPT_SB_, symObjAddr: 0x3934, symBinAddr: 0x100007964, symSize: 0x24 }
  - { offsetInCU: 0x16FE7, offset: 0x16FE7, size: 0x8, addend: 0x0, symName: __ZNSt3__19__launderB8ue170006INS_4pairIKNS_12basic_stringIcNS_11char_traitsIcEENS_9allocatorIcEEEEiEEEEPT_SB_, symObjAddr: 0x3958, symBinAddr: 0x100007988, symSize: 0x14 }
  - { offsetInCU: 0x1701E, offset: 0x1701E, size: 0x8, addend: 0x0, symName: __ZNSt3__119__libcpp_deallocateB8ue170006EPvmm, symObjAddr: 0x39AC, symBinAddr: 0x1000079DC, symSize: 0x60 }
  - { offsetInCU: 0x17083, offset: 0x17083, size: 0x8, addend: 0x0, symName: __ZNSt3__127__do_deallocate_handle_sizeB8ue170006IJSt11align_val_tEEEvPvmDpT_, symObjAddr: 0x3A0C, symBinAddr: 0x100007A3C, symSize: 0x30 }
  - { offsetInCU: 0x170D6, offset: 0x170D6, size: 0x8, addend: 0x0, symName: __ZNSt3__127__do_deallocate_handle_sizeB8ue170006IJEEEvPvmDpT_, symObjAddr: 0x3A3C, symBinAddr: 0x100007A6C, symSize: 0x28 }
  - { offsetInCU: 0x17114, offset: 0x17114, size: 0x8, addend: 0x0, symName: __ZNSt3__124__libcpp_operator_deleteB8ue170006IJPvSt11align_val_tEEEvDpT_, symObjAddr: 0x3A64, symBinAddr: 0x100007A94, symSize: 0x2C }
  - { offsetInCU: 0x1715D, offset: 0x1715D, size: 0x8, addend: 0x0, symName: __ZNSt3__124__libcpp_operator_deleteB8ue170006IJPvEEEvDpT_, symObjAddr: 0x3A90, symBinAddr: 0x100007AC0, symSize: 0x24 }
  - { offsetInCU: 0x17192, offset: 0x17192, size: 0x8, addend: 0x0, symName: __ZNSt3__19use_facetB8ue170006INS_5ctypeIcEEEERKT_RKNS_6localeE, symObjAddr: 0x3D7C, symBinAddr: 0x100007DAC, symSize: 0x2C }
  - { offsetInCU: 0x17696, offset: 0x17696, size: 0x8, addend: 0x0, symName: __ZNSt3__116forward_as_tupleB8ue170006IJRKNS_12basic_stringIcNS_11char_traitsIcEENS_9allocatorIcEEEEEEENS_5tupleIJDpOT_EEESC_, symObjAddr: 0x4300, symBinAddr: 0x100008330, symSize: 0x2C }
  - { offsetInCU: 0x176CF, offset: 0x176CF, size: 0x8, addend: 0x0, symName: __ZNSt3__116forward_as_tupleB8ue170006IJEEENS_5tupleIJDpOT_EEES4_, symObjAddr: 0x432C, symBinAddr: 0x10000835C, symSize: 0x4 }
  - { offsetInCU: 0x176F3, offset: 0x176F3, size: 0x8, addend: 0x0, symName: __ZNSt3__1ltB8ue170006ENS_15strong_orderingENS_20_CmpUnspecifiedParamE, symObjAddr: 0x4964, symBinAddr: 0x100008994, symSize: 0x24 }
  - { offsetInCU: 0x1772C, offset: 0x1772C, size: 0x8, addend: 0x0, symName: __ZNSt3__1ssB8ue170006IcNS_11char_traitsIcEENS_9allocatorIcEEEEDaRKNS_12basic_stringIT_T0_T1_EESC_, symObjAddr: 0x4988, symBinAddr: 0x1000089B8, symSize: 0x5C }
  - { offsetInCU: 0x177A0, offset: 0x177A0, size: 0x8, addend: 0x0, symName: __ZNSt3__1ssB8ue170006IcNS_11char_traitsIcEEEEDaNS_17basic_string_viewIT_T0_EES7_, symObjAddr: 0x4A18, symBinAddr: 0x100008A48, symSize: 0x7C }
  - { offsetInCU: 0x177EF, offset: 0x177EF, size: 0x8, addend: 0x0, symName: __ZNSt3__13minB8ue170006ImEERKT_S3_S3_, symObjAddr: 0x4C20, symBinAddr: 0x100008C50, symSize: 0x2C }
  - { offsetInCU: 0x17832, offset: 0x17832, size: 0x8, addend: 0x0, symName: __ZNSt3__13minB8ue170006ImNS_6__lessIvvEEEERKT_S5_S5_T0_, symObjAddr: 0x4CB0, symBinAddr: 0x100008CE0, symSize: 0x54 }
  - { offsetInCU: 0x178D1, offset: 0x178D1, size: 0x8, addend: 0x0, symName: __ZNSt3__17launderB8ue170006IKNS_4pairIKNS_12basic_stringIcNS_11char_traitsIcEENS_9allocatorIcEEEEiEEEEPT_SC_, symObjAddr: 0x4DB8, symBinAddr: 0x100008DE8, symSize: 0x24 }
  - { offsetInCU: 0x17908, offset: 0x17908, size: 0x8, addend: 0x0, symName: __ZNSt3__19__launderB8ue170006IKNS_4pairIKNS_12basic_stringIcNS_11char_traitsIcEENS_9allocatorIcEEEEiEEEEPT_SC_, symObjAddr: 0x4DDC, symBinAddr: 0x100008E0C, symSize: 0x14 }
  - { offsetInCU: 0x17982, offset: 0x17982, size: 0x8, addend: 0x0, symName: __ZNSt3__112construct_atB8ue170006INS_4pairIKNS_12basic_stringIcNS_11char_traitsIcEENS_9allocatorIcEEEEiEEJRKNS_21piecewise_construct_tENS_5tupleIJRS8_EEENSD_IJEEEEPS9_EEPT_SJ_DpOT0_, symObjAddr: 0x50F8, symBinAddr: 0x100009128, symSize: 0x50 }
  - { offsetInCU: 0x17A23, offset: 0x17A23, size: 0x8, addend: 0x0, symName: __ZNSt3__13getB8ue170006ILm0EJRKNS_12basic_stringIcNS_11char_traitsIcEENS_9allocatorIcEEEEEEERNS_13tuple_elementIXT_ENS_5tupleIJDpT0_EEEE4typeERSD_, symObjAddr: 0x5208, symBinAddr: 0x100009238, symSize: 0x24 }
  - { offsetInCU: 0x17A66, offset: 0x17A66, size: 0x8, addend: 0x0, symName: __ZNSt3__127__tree_balance_after_insertB8ue170006IPNS_16__tree_node_baseIPvEEEEvT_S5_, symObjAddr: 0x52B8, symBinAddr: 0x1000092E8, symSize: 0x32C }
  - { offsetInCU: 0x17AE2, offset: 0x17AE2, size: 0x8, addend: 0x0, symName: __ZNSt3__120__tree_is_left_childB8ue170006IPNS_16__tree_node_baseIPvEEEEbT_, symObjAddr: 0x5624, symBinAddr: 0x100009654, symSize: 0x2C }
  - { offsetInCU: 0x17B17, offset: 0x17B17, size: 0x8, addend: 0x0, symName: __ZNSt3__118__tree_left_rotateB8ue170006IPNS_16__tree_node_baseIPvEEEEvT_, symObjAddr: 0x5650, symBinAddr: 0x100009680, symSize: 0xD8 }
  - { offsetInCU: 0x17B59, offset: 0x17B59, size: 0x8, addend: 0x0, symName: __ZNSt3__119__tree_right_rotateB8ue170006IPNS_16__tree_node_baseIPvEEEEvT_, symObjAddr: 0x5728, symBinAddr: 0x100009758, symSize: 0xCC }
  - { offsetInCU: 0x17BF2, offset: 0x17BF2, size: 0x8, addend: 0x0, symName: __ZNSt3__110destroy_atB8ue170006INS_4pairIKNS_12basic_stringIcNS_11char_traitsIcEENS_9allocatorIcEEEEdEELi0EEEvPT_, symObjAddr: 0x6074, symBinAddr: 0x10000A0A4, symSize: 0x24 }
  - { offsetInCU: 0x17C29, offset: 0x17C29, size: 0x8, addend: 0x0, symName: __ZNSt3__112__destroy_atB8ue170006INS_4pairIKNS_12basic_stringIcNS_11char_traitsIcEENS_9allocatorIcEEEEdEELi0EEEvPT_, symObjAddr: 0x6098, symBinAddr: 0x10000A0C8, symSize: 0x24 }
  - { offsetInCU: 0x17C60, offset: 0x17C60, size: 0x8, addend: 0x0, symName: __ZNSt3__17launderB8ue170006INS_4pairIKNS_12basic_stringIcNS_11char_traitsIcEENS_9allocatorIcEEEEdEEEEPT_SB_, symObjAddr: 0x6138, symBinAddr: 0x10000A168, symSize: 0x24 }
  - { offsetInCU: 0x17C97, offset: 0x17C97, size: 0x8, addend: 0x0, symName: __ZNSt3__19__launderB8ue170006INS_4pairIKNS_12basic_stringIcNS_11char_traitsIcEENS_9allocatorIcEEEEdEEEEPT_SB_, symObjAddr: 0x615C, symBinAddr: 0x10000A18C, symSize: 0x14 }
  - { offsetInCU: 0x17CCE, offset: 0x17CCE, size: 0x8, addend: 0x0, symName: __ZNSt3__1neB8ue170006ERKNS_15__tree_iteratorINS_12__value_typeINS_12basic_stringIcNS_11char_traitsIcEENS_9allocatorIcEEEEiEEPNS_11__tree_nodeIS8_PvEElEESF_, symObjAddr: 0x6310, symBinAddr: 0x10000A340, symSize: 0x34 }
  - { offsetInCU: 0x17D0B, offset: 0x17D0B, size: 0x8, addend: 0x0, symName: __ZNSt3__1eqB8ue170006ERKNS_15__tree_iteratorINS_12__value_typeINS_12basic_stringIcNS_11char_traitsIcEENS_9allocatorIcEEEEiEEPNS_11__tree_nodeIS8_PvEElEESF_, symObjAddr: 0x6344, symBinAddr: 0x10000A374, symSize: 0x30 }
  - { offsetInCU: 0x17D48, offset: 0x17D48, size: 0x8, addend: 0x0, symName: __ZNSt3__116__tree_next_iterB8ue170006IPNS_15__tree_end_nodeIPNS_16__tree_node_baseIPvEEEES5_EET_T0_, symObjAddr: 0x63AC, symBinAddr: 0x10000A3DC, symSize: 0x80 }
  - { offsetInCU: 0x17D86, offset: 0x17D86, size: 0x8, addend: 0x0, symName: __ZNSt3__110__tree_minB8ue170006IPNS_16__tree_node_baseIPvEEEET_S5_, symObjAddr: 0x642C, symBinAddr: 0x10000A45C, symSize: 0x40 }
  - { offsetInCU: 0x17DBB, offset: 0x17DBB, size: 0x8, addend: 0x0, symName: __ZNSt3__17launderB8ue170006IKNS_4pairIKNS_12basic_stringIcNS_11char_traitsIcEENS_9allocatorIcEEEEdEEEEPT_SC_, symObjAddr: 0x6B50, symBinAddr: 0x10000AB80, symSize: 0x24 }
  - { offsetInCU: 0x17DF2, offset: 0x17DF2, size: 0x8, addend: 0x0, symName: __ZNSt3__19__launderB8ue170006IKNS_4pairIKNS_12basic_stringIcNS_11char_traitsIcEENS_9allocatorIcEEEEdEEEEPT_SC_, symObjAddr: 0x6B74, symBinAddr: 0x10000ABA4, symSize: 0x14 }
  - { offsetInCU: 0x17E6C, offset: 0x17E6C, size: 0x8, addend: 0x0, symName: __ZNSt3__112construct_atB8ue170006INS_4pairIKNS_12basic_stringIcNS_11char_traitsIcEENS_9allocatorIcEEEEdEEJRKNS_21piecewise_construct_tENS_5tupleIJRS8_EEENSD_IJEEEEPS9_EEPT_SJ_DpOT0_, symObjAddr: 0x6E90, symBinAddr: 0x10000AEC0, symSize: 0x50 }
  - { offsetInCU: 0x17F35, offset: 0x17F35, size: 0x8, addend: 0x0, symName: __ZNSt3__1neB8ue170006ERKNS_20__map_const_iteratorINS_21__tree_const_iteratorINS_12__value_typeINS_12basic_stringIcNS_11char_traitsIcEENS_9allocatorIcEEEEdEEPNS_11__tree_nodeIS9_PvEElEEEESH_, symObjAddr: 0x7670, symBinAddr: 0x10000B6A0, symSize: 0x30 }
  - { offsetInCU: 0x17F72, offset: 0x17F72, size: 0x8, addend: 0x0, symName: __ZNSt3__1neB8ue170006ERKNS_21__tree_const_iteratorINS_12__value_typeINS_12basic_stringIcNS_11char_traitsIcEENS_9allocatorIcEEEEdEEPNS_11__tree_nodeIS8_PvEElEESF_, symObjAddr: 0x7778, symBinAddr: 0x10000B7A8, symSize: 0x34 }
  - { offsetInCU: 0x17FAF, offset: 0x17FAF, size: 0x8, addend: 0x0, symName: __ZNSt3__1eqB8ue170006ERKNS_21__tree_const_iteratorINS_12__value_typeINS_12basic_stringIcNS_11char_traitsIcEENS_9allocatorIcEEEEdEEPNS_11__tree_nodeIS8_PvEElEESF_, symObjAddr: 0x77AC, symBinAddr: 0x10000B7DC, symSize: 0x30 }
  - { offsetInCU: 0x18010, offset: 0x18010, size: 0x8, addend: 0x0, symName: __ZNSt3__14nextB8ue170006INS_21__tree_const_iteratorINS_12__value_typeINS_12basic_stringIcNS_11char_traitsIcEENS_9allocatorIcEEEEdEEPNS_11__tree_nodeIS9_PvEElEEEENS_9enable_ifIXsr29__has_input_iterator_categoryIT_EE5valueESG_E4typeESG_NS_15iterator_traitsISG_E15difference_typeE, symObjAddr: 0x7E9C, symBinAddr: 0x10000BECC, symSize: 0x3C }
  - { offsetInCU: 0x18053, offset: 0x18053, size: 0x8, addend: 0x0, symName: __ZNSt3__116__tree_prev_iterB8ue170006IPNS_16__tree_node_baseIPvEEPNS_15__tree_end_nodeIS4_EEEET_T0_, symObjAddr: 0x7F64, symBinAddr: 0x10000BF94, symSize: 0x88 }
  - { offsetInCU: 0x1809F, offset: 0x1809F, size: 0x8, addend: 0x0, symName: __ZNSt3__110__tree_maxB8ue170006IPNS_16__tree_node_baseIPvEEEET_S5_, symObjAddr: 0x7FEC, symBinAddr: 0x10000C01C, symSize: 0x40 }
  - { offsetInCU: 0x180D4, offset: 0x180D4, size: 0x8, addend: 0x0, symName: __ZNSt3__121__convert_to_integralB8ue170006El, symObjAddr: 0x8064, symBinAddr: 0x10000C094, symSize: 0x14 }
  - { offsetInCU: 0x18100, offset: 0x18100, size: 0x8, addend: 0x0, symName: __ZNSt3__19__advanceB8ue170006INS_21__tree_const_iteratorINS_12__value_typeINS_12basic_stringIcNS_11char_traitsIcEENS_9allocatorIcEEEEdEEPNS_11__tree_nodeIS9_PvEElEEEEvRT_NS_15iterator_traitsISF_E15difference_typeENS_26bidirectional_iterator_tagE, symObjAddr: 0x8078, symBinAddr: 0x10000C0A8, symSize: 0xA4 }
  - { offsetInCU: 0x18149, offset: 0x18149, size: 0x8, addend: 0x0, symName: __ZNSt3__112construct_atB8ue170006INS_4pairIKNS_12basic_stringIcNS_11char_traitsIcEENS_9allocatorIcEEEEdEEJRKS9_EPS9_EEPT_SE_DpOT0_, symObjAddr: 0x8184, symBinAddr: 0x10000C1B4, symSize: 0x3C }
  - { offsetInCU: 0x181EC, offset: 0x181EC, size: 0x8, addend: 0x0, symName: __ZNSt3__1neB8ue170006ERKNS_15__tree_iteratorINS_12__value_typeINS_12basic_stringIcNS_11char_traitsIcEENS_9allocatorIcEEEEdEEPNS_11__tree_nodeIS8_PvEElEESF_, symObjAddr: 0x8384, symBinAddr: 0x10000C3B4, symSize: 0x34 }
  - { offsetInCU: 0x18229, offset: 0x18229, size: 0x8, addend: 0x0, symName: __ZNSt3__1eqB8ue170006ERKNS_15__tree_iteratorINS_12__value_typeINS_12basic_stringIcNS_11char_traitsIcEENS_9allocatorIcEEEEdEEPNS_11__tree_nodeIS8_PvEElEESF_, symObjAddr: 0x83B8, symBinAddr: 0x10000C3E8, symSize: 0x30 }
  - { offsetInCU: 0x18299, offset: 0x18299, size: 0x8, addend: 0x0, symName: __ZNSt3__116forward_as_tupleB8ue170006IJNS_12basic_stringIcNS_11char_traitsIcEENS_9allocatorIcEEEEEEENS_5tupleIJDpOT_EEESA_, symObjAddr: 0x8534, symBinAddr: 0x10000C564, symSize: 0x2C }
  - { offsetInCU: 0x182D2, offset: 0x182D2, size: 0x8, addend: 0x0, symName: __ZNSt3__112construct_atB8ue170006INS_4pairIKNS_12basic_stringIcNS_11char_traitsIcEENS_9allocatorIcEEEEdEEJRKNS_21piecewise_construct_tENS_5tupleIJOS7_EEENSD_IJEEEEPS9_EEPT_SJ_DpOT0_, symObjAddr: 0x86C0, symBinAddr: 0x10000C6F0, symSize: 0x50 }
  - { offsetInCU: 0x18368, offset: 0x18368, size: 0x8, addend: 0x0, symName: __ZNSt3__13getB8ue170006ILm0EJONS_12basic_stringIcNS_11char_traitsIcEENS_9allocatorIcEEEEEEERNS_13tuple_elementIXT_ENS_5tupleIJDpT0_EEEE4typeERSC_, symObjAddr: 0x87DC, symBinAddr: 0x10000C80C, symSize: 0x24 }
  - { offsetInCU: 0x183C0, offset: 0x183C0, size: 0x8, addend: 0x0, symName: __ZNSt3__116__pad_and_outputB8ue170006IcNS_11char_traitsIcEEEENS_19ostreambuf_iteratorIT_T0_EES6_PKS4_S8_S8_RNS_8ios_baseES4_, symObjAddr: 0x8B8C, symBinAddr: 0x10000CBBC, symSize: 0x240 }
  - { offsetInCU: 0x18AE4, offset: 0x18AE4, size: 0x8, addend: 0x0, symName: __ZSt28__throw_bad_array_new_lengthB8ue170006v, symObjAddr: 0x249C, symBinAddr: 0x1000064CC, symSize: 0x34 }
  - { offsetInCU: 0x18D99, offset: 0x18D99, size: 0x8, addend: 0x0, symName: __ZN10Randomizer3rngE, symObjAddr: 0x9508, symBinAddr: 0x100020010, symSize: 0x0 }
  - { offsetInCU: 0x1C4B4, offset: 0x1C4B4, size: 0x8, addend: 0x0, symName: __ZNSt3__113random_deviceC1B8ue170006Ev, symObjAddr: 0x0, symBinAddr: 0x100004030, symSize: 0x74 }
  - { offsetInCU: 0x1C4DE, offset: 0x1C4DE, size: 0x8, addend: 0x0, symName: __ZNSt3__126linear_congruential_engineIjLj48271ELj0ELj2147483647EEC1B8ue170006Ej, symObjAddr: 0x74, symBinAddr: 0x1000040A4, symSize: 0x34 }
  - { offsetInCU: 0x1C515, offset: 0x1C515, size: 0x8, addend: 0x0, symName: __Z12getWordCountNSt3__112basic_stringIcNS_11char_traitsIcEENS_9allocatorIcEEEE, symObjAddr: 0xA8, symBinAddr: 0x1000040D8, symSize: 0x22C }
  - { offsetInCU: 0x1C5A4, offset: 0x1C5A4, size: 0x8, addend: 0x0, symName: __ZNSt3__13mapINS_12basic_stringIcNS_11char_traitsIcEENS_9allocatorIcEEEEiNS_4lessIS6_EENS4_INS_4pairIKS6_iEEEEEC1B8ue170006Ev, symObjAddr: 0x2D4, symBinAddr: 0x100004304, symSize: 0x2C }
  - { offsetInCU: 0x1C720, offset: 0x1C720, size: 0x8, addend: 0x0, symName: __ZNSt3__114basic_ifstreamIcNS_11char_traitsIcEEEC1ERKNS_12basic_stringIcS2_NS_9allocatorIcEEEEj, symObjAddr: 0x300, symBinAddr: 0x100004330, symSize: 0x16C }
  - { offsetInCU: 0x1C76A, offset: 0x1C76A, size: 0x8, addend: 0x0, symName: __ZNSt3__112basic_stringIcNS_11char_traitsIcEENS_9allocatorIcEEEC1B8ue170006Ev, symObjAddr: 0x46C, symBinAddr: 0x10000449C, symSize: 0x2C }
  - { offsetInCU: 0x1C794, offset: 0x1C794, size: 0x8, addend: 0x0, symName: __ZNKSt3__19basic_iosIcNS_11char_traitsIcEEEcvbB8ue170006Ev, symObjAddr: 0x4F4, symBinAddr: 0x100004524, symSize: 0x2C }
  - { offsetInCU: 0x1C832, offset: 0x1C832, size: 0x8, addend: 0x0, symName: __ZNSt3__119basic_istringstreamIcNS_11char_traitsIcEENS_9allocatorIcEEEC1B8ue170006ERKNS_12basic_stringIcS2_S4_EEj, symObjAddr: 0x520, symBinAddr: 0x100004550, symSize: 0xFC }
  - { offsetInCU: 0x1C87A, offset: 0x1C87A, size: 0x8, addend: 0x0, symName: __ZNSt3__13mapINS_12basic_stringIcNS_11char_traitsIcEENS_9allocatorIcEEEEiNS_4lessIS6_EENS4_INS_4pairIKS6_iEEEEEixERSA_, symObjAddr: 0x854, symBinAddr: 0x100004884, symSize: 0x80 }
  - { offsetInCU: 0x1C8B7, offset: 0x1C8B7, size: 0x8, addend: 0x0, symName: __ZNSt3__119basic_istringstreamIcNS_11char_traitsIcEENS_9allocatorIcEEED1Ev, symObjAddr: 0x8D4, symBinAddr: 0x100004904, symSize: 0x40 }
  - { offsetInCU: 0x1C8EA, offset: 0x1C8EA, size: 0x8, addend: 0x0, symName: __ZNSt3__114basic_ifstreamIcNS_11char_traitsIcEEED1Ev, symObjAddr: 0x914, symBinAddr: 0x100004944, symSize: 0x40 }
  - { offsetInCU: 0x1C917, offset: 0x1C917, size: 0x8, addend: 0x0, symName: __ZNSt3__13mapINS_12basic_stringIcNS_11char_traitsIcEENS_9allocatorIcEEEEiNS_4lessIS6_EENS4_INS_4pairIKS6_iEEEEED1B8ue170006Ev, symObjAddr: 0x954, symBinAddr: 0x100004984, symSize: 0x2C }
  - { offsetInCU: 0x1C940, offset: 0x1C940, size: 0x8, addend: 0x0, symName: __Z16getWordFrequencyNSt3__13mapINS_12basic_stringIcNS_11char_traitsIcEENS_9allocatorIcEEEEiNS_4lessIS6_EENS4_INS_4pairIKS6_iEEEEEE, symObjAddr: 0x980, symBinAddr: 0x1000049B0, symSize: 0x15C }
  - { offsetInCU: 0x1C9E7, offset: 0x1C9E7, size: 0x8, addend: 0x0, symName: __ZNSt3__13mapINS_12basic_stringIcNS_11char_traitsIcEENS_9allocatorIcEEEEdNS_4lessIS6_EENS4_INS_4pairIKS6_dEEEEEC1B8ue170006Ev, symObjAddr: 0xADC, symBinAddr: 0x100004B0C, symSize: 0x2C }
  - { offsetInCU: 0x1CA11, offset: 0x1CA11, size: 0x8, addend: 0x0, symName: __ZNSt3__13mapINS_12basic_stringIcNS_11char_traitsIcEENS_9allocatorIcEEEEiNS_4lessIS6_EENS4_INS_4pairIKS6_iEEEEE5beginB8ue170006Ev, symObjAddr: 0xB08, symBinAddr: 0x100004B38, symSize: 0x38 }
  - { offsetInCU: 0x1CA37, offset: 0x1CA37, size: 0x8, addend: 0x0, symName: __ZNSt3__13mapINS_12basic_stringIcNS_11char_traitsIcEENS_9allocatorIcEEEEiNS_4lessIS6_EENS4_INS_4pairIKS6_iEEEEE3endB8ue170006Ev, symObjAddr: 0xB40, symBinAddr: 0x100004B70, symSize: 0x38 }
  - { offsetInCU: 0x1CA5D, offset: 0x1CA5D, size: 0x8, addend: 0x0, symName: __ZNKSt3__114__map_iteratorINS_15__tree_iteratorINS_12__value_typeINS_12basic_stringIcNS_11char_traitsIcEENS_9allocatorIcEEEEiEEPNS_11__tree_nodeIS9_PvEElEEEdeB8ue170006Ev, symObjAddr: 0xBA8, symBinAddr: 0x100004BD8, symSize: 0x28 }
  - { offsetInCU: 0x1CA83, offset: 0x1CA83, size: 0x8, addend: 0x0, symName: __ZNSt3__13mapINS_12basic_stringIcNS_11char_traitsIcEENS_9allocatorIcEEEEdNS_4lessIS6_EENS4_INS_4pairIKS6_dEEEEEixERSA_, symObjAddr: 0xC18, symBinAddr: 0x100004C48, symSize: 0x80 }
  - { offsetInCU: 0x1CABA, offset: 0x1CABA, size: 0x8, addend: 0x0, symName: __ZNSt3__114__map_iteratorINS_15__tree_iteratorINS_12__value_typeINS_12basic_stringIcNS_11char_traitsIcEENS_9allocatorIcEEEEiEEPNS_11__tree_nodeIS9_PvEElEEEppB8ue170006Ev, symObjAddr: 0xC98, symBinAddr: 0x100004CC8, symSize: 0x2C }
  - { offsetInCU: 0x1CAE0, offset: 0x1CAE0, size: 0x8, addend: 0x0, symName: __ZNSt3__13mapINS_12basic_stringIcNS_11char_traitsIcEENS_9allocatorIcEEEEdNS_4lessIS6_EENS4_INS_4pairIKS6_dEEEEEC1B8ue170006ERKSD_, symObjAddr: 0xCC4, symBinAddr: 0x100004CF4, symSize: 0x34 }
  - { offsetInCU: 0x1CB19, offset: 0x1CB19, size: 0x8, addend: 0x0, symName: __ZNSt3__13mapINS_12basic_stringIcNS_11char_traitsIcEENS_9allocatorIcEEEEdNS_4lessIS6_EENS4_INS_4pairIKS6_dEEEEED1B8ue170006Ev, symObjAddr: 0xCF8, symBinAddr: 0x100004D28, symSize: 0x2C }
  - { offsetInCU: 0x1CB42, offset: 0x1CB42, size: 0x8, addend: 0x0, symName: __Z18getLetterFrequencyNSt3__13mapINS_12basic_stringIcNS_11char_traitsIcEENS_9allocatorIcEEEEdNS_4lessIS6_EENS4_INS_4pairIKS6_dEEEEEE, symObjAddr: 0xD24, symBinAddr: 0x100004D54, symSize: 0x218 }
  - { offsetInCU: 0x1CBCB, offset: 0x1CBCB, size: 0x8, addend: 0x0, symName: __ZNSt3__13mapINS_12basic_stringIcNS_11char_traitsIcEENS_9allocatorIcEEEEdNS_4lessIS6_EENS4_INS_4pairIKS6_dEEEEE5beginB8ue170006Ev, symObjAddr: 0xF3C, symBinAddr: 0x100004F6C, symSize: 0x38 }
  - { offsetInCU: 0x1CBF1, offset: 0x1CBF1, size: 0x8, addend: 0x0, symName: __ZNSt3__13mapINS_12basic_stringIcNS_11char_traitsIcEENS_9allocatorIcEEEEdNS_4lessIS6_EENS4_INS_4pairIKS6_dEEEEE3endB8ue170006Ev, symObjAddr: 0xFA4, symBinAddr: 0x100004FD4, symSize: 0x38 }
  - { offsetInCU: 0x1CC17, offset: 0x1CC17, size: 0x8, addend: 0x0, symName: __ZNKSt3__114__map_iteratorINS_15__tree_iteratorINS_12__value_typeINS_12basic_stringIcNS_11char_traitsIcEENS_9allocatorIcEEEEdEEPNS_11__tree_nodeIS9_PvEElEEEptB8ue170006Ev, symObjAddr: 0xFDC, symBinAddr: 0x10000500C, symSize: 0x2C }
  - { offsetInCU: 0x1CC3D, offset: 0x1CC3D, size: 0x8, addend: 0x0, symName: __ZNKSt3__112basic_stringIcNS_11char_traitsIcEENS_9allocatorIcEEE6lengthB8ue170006Ev, symObjAddr: 0x1008, symBinAddr: 0x100005038, symSize: 0x24 }
  - { offsetInCU: 0x1CC63, offset: 0x1CC63, size: 0x8, addend: 0x0, symName: __ZNSt3__112basic_stringIcNS_11char_traitsIcEENS_9allocatorIcEEEixB8ue170006Em, symObjAddr: 0x102C, symBinAddr: 0x10000505C, symSize: 0x30 }
  - { offsetInCU: 0x1CC98, offset: 0x1CC98, size: 0x8, addend: 0x0, symName: __ZNSt3__112basic_stringIcNS_11char_traitsIcEENS_9allocatorIcEEEC1B8ue170006ESt16initializer_listIcE, symObjAddr: 0x105C, symBinAddr: 0x10000508C, symSize: 0x3C }
  - { offsetInCU: 0x1CCD1, offset: 0x1CCD1, size: 0x8, addend: 0x0, symName: __ZNSt3__114__map_iteratorINS_15__tree_iteratorINS_12__value_typeINS_12basic_stringIcNS_11char_traitsIcEENS_9allocatorIcEEEEdEEPNS_11__tree_nodeIS9_PvEElEEEppB8ue170006Ev, symObjAddr: 0x1098, symBinAddr: 0x1000050C8, symSize: 0x2C }
  - { offsetInCU: 0x1CCF6, offset: 0x1CCF6, size: 0x8, addend: 0x0, symName: __Z24getDoubleLetterFrequencyNSt3__13mapINS_12basic_stringIcNS_11char_traitsIcEENS_9allocatorIcEEEEdNS_4lessIS6_EENS4_INS_4pairIKS6_dEEEEEE, symObjAddr: 0x10C4, symBinAddr: 0x1000050F4, symSize: 0x2E4 }
  - { offsetInCU: 0x1CD8E, offset: 0x1CD8E, size: 0x8, addend: 0x0, symName: __ZNSt3__13mapINS_12basic_stringIcNS_11char_traitsIcEENS_9allocatorIcEEEEdNS_4lessIS6_EENS4_INS_4pairIKS6_dEEEEEixEOS6_, symObjAddr: 0x13A8, symBinAddr: 0x1000053D8, symSize: 0x80 }
  - { offsetInCU: 0x1CDC4, offset: 0x1CDC4, size: 0x8, addend: 0x0, symName: __Z9printDictNSt3__13mapINS_12basic_stringIcNS_11char_traitsIcEENS_9allocatorIcEEEEdNS_4lessIS6_EENS4_INS_4pairIKS6_dEEEEEE, symObjAddr: 0x155C, symBinAddr: 0x10000558C, symSize: 0xB0 }
  - { offsetInCU: 0x1CE02, offset: 0x1CE02, size: 0x8, addend: 0x0, symName: __ZNSt3__112basic_stringIcNS_11char_traitsIcEENS_9allocatorIcEEEC1B8ue170006ILi0EEEPKc, symObjAddr: 0x16A0, symBinAddr: 0x1000056D0, symSize: 0x34 }
  - { offsetInCU: 0x1CE41, offset: 0x1CE41, size: 0x8, addend: 0x0, symName: __ZNSt3__112basic_stringIcNS_11char_traitsIcEENS_9allocatorIcEEEC2B8ue170006ILi0EEEPKc, symObjAddr: 0x16D4, symBinAddr: 0x100005704, symSize: 0x58 }
  - { offsetInCU: 0x1CE86, offset: 0x1CE86, size: 0x8, addend: 0x0, symName: __ZNSt3__117__compressed_pairINS_12basic_stringIcNS_11char_traitsIcEENS_9allocatorIcEEE5__repES5_EC1B8ue170006INS_18__default_init_tagESA_EEOT_OT0_, symObjAddr: 0x172C, symBinAddr: 0x10000575C, symSize: 0x3C }
  - { offsetInCU: 0x1CEDE, offset: 0x1CEDE, size: 0x8, addend: 0x0, symName: __ZNSt3__111char_traitsIcE6lengthB8ue170006EPKc, symObjAddr: 0x1768, symBinAddr: 0x100005798, symSize: 0x34 }
  - { offsetInCU: 0x1CF01, offset: 0x1CF01, size: 0x8, addend: 0x0, symName: __ZNSt3__117__compressed_pairINS_12basic_stringIcNS_11char_traitsIcEENS_9allocatorIcEEE5__repES5_EC2B8ue170006INS_18__default_init_tagESA_EEOT_OT0_, symObjAddr: 0x179C, symBinAddr: 0x1000057CC, symSize: 0x3C }
  - { offsetInCU: 0x1CF59, offset: 0x1CF59, size: 0x8, addend: 0x0, symName: __ZNSt3__122__compressed_pair_elemINS_12basic_stringIcNS_11char_traitsIcEENS_9allocatorIcEEE5__repELi0ELb0EEC2B8ue170006ENS_18__default_init_tagE, symObjAddr: 0x17D8, symBinAddr: 0x100005808, symSize: 0x14 }
  - { offsetInCU: 0x1CF8D, offset: 0x1CF8D, size: 0x8, addend: 0x0, symName: __ZNSt3__122__compressed_pair_elemINS_9allocatorIcEELi1ELb1EEC2B8ue170006ENS_18__default_init_tagE, symObjAddr: 0x17EC, symBinAddr: 0x10000581C, symSize: 0x2C }
  - { offsetInCU: 0x1CFC1, offset: 0x1CFC1, size: 0x8, addend: 0x0, symName: __ZNSt3__19allocatorIcEC2B8ue170006Ev, symObjAddr: 0x1818, symBinAddr: 0x100005848, symSize: 0x2C }
  - { offsetInCU: 0x1CFEB, offset: 0x1CFEB, size: 0x8, addend: 0x0, symName: __ZNSt3__116__non_trivial_ifILb1ENS_9allocatorIcEEEC2B8ue170006Ev, symObjAddr: 0x1844, symBinAddr: 0x100005874, symSize: 0x14 }
  - { offsetInCU: 0x1D015, offset: 0x1D015, size: 0x8, addend: 0x0, symName: __ZNSt3__112basic_stringIcNS_11char_traitsIcEENS_9allocatorIcEEEC2B8ue170006Ev, symObjAddr: 0x1888, symBinAddr: 0x1000058B8, symSize: 0x48 }
  - { offsetInCU: 0x1D03F, offset: 0x1D03F, size: 0x8, addend: 0x0, symName: __ZNSt3__112basic_stringIcNS_11char_traitsIcEENS_9allocatorIcEEE14__default_initB8ue170006Ev, symObjAddr: 0x18D0, symBinAddr: 0x100005900, symSize: 0x40 }
  - { offsetInCU: 0x1D065, offset: 0x1D065, size: 0x8, addend: 0x0, symName: __ZNSt3__117__compressed_pairINS_12basic_stringIcNS_11char_traitsIcEENS_9allocatorIcEEE5__repES5_E5firstB8ue170006Ev, symObjAddr: 0x1910, symBinAddr: 0x100005940, symSize: 0x24 }
  - { offsetInCU: 0x1D08B, offset: 0x1D08B, size: 0x8, addend: 0x0, symName: __ZNSt3__122__compressed_pair_elemINS_12basic_stringIcNS_11char_traitsIcEENS_9allocatorIcEEE5__repELi0ELb0EE5__getB8ue170006Ev, symObjAddr: 0x1934, symBinAddr: 0x100005964, symSize: 0x14 }
  - { offsetInCU: 0x1D0B1, offset: 0x1D0B1, size: 0x8, addend: 0x0, symName: __ZNSt3__119basic_istringstreamIcNS_11char_traitsIcEENS_9allocatorIcEEED2Ev, symObjAddr: 0x1948, symBinAddr: 0x100005978, symSize: 0x64 }
  - { offsetInCU: 0x1D0EB, offset: 0x1D0EB, size: 0x8, addend: 0x0, symName: __ZTv0_n24_NSt3__119basic_istringstreamIcNS_11char_traitsIcEENS_9allocatorIcEEED1Ev, symObjAddr: 0x19AC, symBinAddr: 0x1000059DC, symSize: 0x28 }
  - { offsetInCU: 0x1D108, offset: 0x1D108, size: 0x8, addend: 0x0, symName: __ZNSt3__115basic_stringbufIcNS_11char_traitsIcEENS_9allocatorIcEEED1Ev, symObjAddr: 0x19D4, symBinAddr: 0x100005A04, symSize: 0x2C }
  - { offsetInCU: 0x1D135, offset: 0x1D135, size: 0x8, addend: 0x0, symName: __ZNSt3__115basic_stringbufIcNS_11char_traitsIcEENS_9allocatorIcEEED2Ev, symObjAddr: 0x1A00, symBinAddr: 0x100005A30, symSize: 0x48 }
  - { offsetInCU: 0x1D162, offset: 0x1D162, size: 0x8, addend: 0x0, symName: __ZNSt3__114basic_ifstreamIcNS_11char_traitsIcEEED2Ev, symObjAddr: 0x1A48, symBinAddr: 0x100005A78, symSize: 0x64 }
  - { offsetInCU: 0x1D19C, offset: 0x1D19C, size: 0x8, addend: 0x0, symName: __ZTv0_n24_NSt3__114basic_ifstreamIcNS_11char_traitsIcEEED1Ev, symObjAddr: 0x1AAC, symBinAddr: 0x100005ADC, symSize: 0x28 }
  - { offsetInCU: 0x1D1B3, offset: 0x1D1B3, size: 0x8, addend: 0x0, symName: __ZNSt3__110__get_pairILm0EE3getB8ue170006IKNS_12basic_stringIcNS_11char_traitsIcEENS_9allocatorIcEEEEiEERKT_RKNS_4pairISA_T0_EE, symObjAddr: 0x1AD4, symBinAddr: 0x100005B04, symSize: 0x14 }
  - { offsetInCU: 0x1D1EF, offset: 0x1D1EF, size: 0x8, addend: 0x0, symName: __ZNSt3__110__get_pairILm1EE3getB8ue170006IKNS_12basic_stringIcNS_11char_traitsIcEENS_9allocatorIcEEEEiEERKT0_RKNS_4pairIT_SA_EE, symObjAddr: 0x1AE8, symBinAddr: 0x100005B18, symSize: 0x18 }
  - { offsetInCU: 0x1D225, offset: 0x1D225, size: 0x8, addend: 0x0, symName: __ZNKSt3__112basic_stringIcNS_11char_traitsIcEENS_9allocatorIcEEE4sizeB8ue170006Ev, symObjAddr: 0x1B00, symBinAddr: 0x100005B30, symSize: 0x54 }
  - { offsetInCU: 0x1D24B, offset: 0x1D24B, size: 0x8, addend: 0x0, symName: __ZNKSt3__112basic_stringIcNS_11char_traitsIcEENS_9allocatorIcEEE9__is_longB8ue170006Ev, symObjAddr: 0x1B54, symBinAddr: 0x100005B84, symSize: 0x38 }
  - { offsetInCU: 0x1D271, offset: 0x1D271, size: 0x8, addend: 0x0, symName: __ZNKSt3__112basic_stringIcNS_11char_traitsIcEENS_9allocatorIcEEE15__get_long_sizeB8ue170006Ev, symObjAddr: 0x1B8C, symBinAddr: 0x100005BBC, symSize: 0x28 }
  - { offsetInCU: 0x1D297, offset: 0x1D297, size: 0x8, addend: 0x0, symName: __ZNKSt3__112basic_stringIcNS_11char_traitsIcEENS_9allocatorIcEEE16__get_short_sizeB8ue170006Ev, symObjAddr: 0x1BB4, symBinAddr: 0x100005BE4, symSize: 0x34 }
  - { offsetInCU: 0x1D2BD, offset: 0x1D2BD, size: 0x8, addend: 0x0, symName: __ZNKSt3__117__compressed_pairINS_12basic_stringIcNS_11char_traitsIcEENS_9allocatorIcEEE5__repES5_E5firstB8ue170006Ev, symObjAddr: 0x1BE8, symBinAddr: 0x100005C18, symSize: 0x24 }
  - { offsetInCU: 0x1D2E3, offset: 0x1D2E3, size: 0x8, addend: 0x0, symName: __ZNKSt3__122__compressed_pair_elemINS_12basic_stringIcNS_11char_traitsIcEENS_9allocatorIcEEE5__repELi0ELb0EE5__getB8ue170006Ev, symObjAddr: 0x1C0C, symBinAddr: 0x100005C3C, symSize: 0x14 }
  - { offsetInCU: 0x1D309, offset: 0x1D309, size: 0x8, addend: 0x0, symName: __ZNSt3__112basic_stringIcNS_11char_traitsIcEENS_9allocatorIcEEE13__get_pointerB8ue170006Ev, symObjAddr: 0x1C20, symBinAddr: 0x100005C50, symSize: 0x54 }
  - { offsetInCU: 0x1D32F, offset: 0x1D32F, size: 0x8, addend: 0x0, symName: __ZNSt3__112basic_stringIcNS_11char_traitsIcEENS_9allocatorIcEEE18__get_long_pointerB8ue170006Ev, symObjAddr: 0x1C74, symBinAddr: 0x100005CA4, symSize: 0x28 }
  - { offsetInCU: 0x1D355, offset: 0x1D355, size: 0x8, addend: 0x0, symName: __ZNSt3__112basic_stringIcNS_11char_traitsIcEENS_9allocatorIcEEE19__get_short_pointerB8ue170006Ev, symObjAddr: 0x1C9C, symBinAddr: 0x100005CCC, symSize: 0x28 }
  - { offsetInCU: 0x1D37B, offset: 0x1D37B, size: 0x8, addend: 0x0, symName: __ZNSt3__114pointer_traitsIPcE10pointer_toB8ue170006ERc, symObjAddr: 0x1CC4, symBinAddr: 0x100005CF4, symSize: 0x14 }
  - { offsetInCU: 0x1D39E, offset: 0x1D39E, size: 0x8, addend: 0x0, symName: __ZNSt3__112basic_stringIcNS_11char_traitsIcEENS_9allocatorIcEEEC2B8ue170006ESt16initializer_listIcE, symObjAddr: 0x1CD8, symBinAddr: 0x100005D08, symSize: 0x6C }
  - { offsetInCU: 0x1D3D7, offset: 0x1D3D7, size: 0x8, addend: 0x0, symName: __ZNSt3__112basic_stringIcNS_11char_traitsIcEENS_9allocatorIcEEE6__initIPKcLi0EEEvT_S9_, symObjAddr: 0x1D44, symBinAddr: 0x100005D74, symSize: 0x54 }
  - { offsetInCU: 0x1D43B, offset: 0x1D43B, size: 0x8, addend: 0x0, symName: __ZNKSt16initializer_listIcE5beginB8ue170006Ev, symObjAddr: 0x1D98, symBinAddr: 0x100005DC8, symSize: 0x18 }
  - { offsetInCU: 0x1D461, offset: 0x1D461, size: 0x8, addend: 0x0, symName: __ZNKSt16initializer_listIcE3endB8ue170006Ev, symObjAddr: 0x1DB0, symBinAddr: 0x100005DE0, symSize: 0x20 }
  - { offsetInCU: 0x1D487, offset: 0x1D487, size: 0x8, addend: 0x0, symName: __ZNSt3__112basic_stringIcNS_11char_traitsIcEENS_9allocatorIcEEE16__init_with_sizeB8ue170006IPKcS8_EEvT_T0_m, symObjAddr: 0x1DFC, symBinAddr: 0x100005E2C, symSize: 0x144 }
  - { offsetInCU: 0x1D51A, offset: 0x1D51A, size: 0x8, addend: 0x0, symName: __ZNKSt3__112basic_stringIcNS_11char_traitsIcEENS_9allocatorIcEEE8max_sizeB8ue170006Ev, symObjAddr: 0x1F60, symBinAddr: 0x100005F90, symSize: 0xAC }
  - { offsetInCU: 0x1D56C, offset: 0x1D56C, size: 0x8, addend: 0x0, symName: __ZNKSt3__112basic_stringIcNS_11char_traitsIcEENS_9allocatorIcEEE20__throw_length_errorB8ue170006Ev, symObjAddr: 0x200C, symBinAddr: 0x10000603C, symSize: 0x1C }
  - { offsetInCU: 0x1D592, offset: 0x1D592, size: 0x8, addend: 0x0, symName: __ZNSt3__112basic_stringIcNS_11char_traitsIcEENS_9allocatorIcEEE13__fits_in_ssoB8ue170006Em, symObjAddr: 0x2028, symBinAddr: 0x100006058, symSize: 0x20 }
  - { offsetInCU: 0x1D5B6, offset: 0x1D5B6, size: 0x8, addend: 0x0, symName: __ZNSt3__112basic_stringIcNS_11char_traitsIcEENS_9allocatorIcEEE16__set_short_sizeB8ue170006Em, symObjAddr: 0x2048, symBinAddr: 0x100006078, symSize: 0x78 }
  - { offsetInCU: 0x1D5EB, offset: 0x1D5EB, size: 0x8, addend: 0x0, symName: __ZNSt3__112basic_stringIcNS_11char_traitsIcEENS_9allocatorIcEEE7__allocB8ue170006Ev, symObjAddr: 0x2100, symBinAddr: 0x100006130, symSize: 0x24 }
  - { offsetInCU: 0x1D611, offset: 0x1D611, size: 0x8, addend: 0x0, symName: __ZNSt3__112basic_stringIcNS_11char_traitsIcEENS_9allocatorIcEEE11__recommendB8ue170006Em, symObjAddr: 0x2124, symBinAddr: 0x100006154, symSize: 0x84 }
  - { offsetInCU: 0x1D644, offset: 0x1D644, size: 0x8, addend: 0x0, symName: __ZNSt3__112basic_stringIcNS_11char_traitsIcEENS_9allocatorIcEEE16__begin_lifetimeB8ue170006EPcm, symObjAddr: 0x21A8, symBinAddr: 0x1000061D8, symSize: 0x14 }
  - { offsetInCU: 0x1D677, offset: 0x1D677, size: 0x8, addend: 0x0, symName: __ZNSt3__112basic_stringIcNS_11char_traitsIcEENS_9allocatorIcEEE18__set_long_pointerB8ue170006EPc, symObjAddr: 0x21BC, symBinAddr: 0x1000061EC, symSize: 0x38 }
  - { offsetInCU: 0x1D6AC, offset: 0x1D6AC, size: 0x8, addend: 0x0, symName: __ZNSt3__112basic_stringIcNS_11char_traitsIcEENS_9allocatorIcEEE14__set_long_capB8ue170006Em, symObjAddr: 0x21F4, symBinAddr: 0x100006224, symSize: 0x70 }
  - { offsetInCU: 0x1D6E1, offset: 0x1D6E1, size: 0x8, addend: 0x0, symName: __ZNSt3__112basic_stringIcNS_11char_traitsIcEENS_9allocatorIcEEE15__set_long_sizeB8ue170006Em, symObjAddr: 0x2264, symBinAddr: 0x100006294, symSize: 0x38 }
  - { offsetInCU: 0x1D716, offset: 0x1D716, size: 0x8, addend: 0x0, symName: __ZNSt3__111char_traitsIcE6assignB8ue170006ERcRKc, symObjAddr: 0x229C, symBinAddr: 0x1000062CC, symSize: 0x24 }
  - { offsetInCU: 0x1D753, offset: 0x1D753, size: 0x8, addend: 0x0, symName: __ZNSt3__116allocator_traitsINS_9allocatorIcEEE8max_sizeB8ue170006IS2_vvEEmRKS2_, symObjAddr: 0x22C0, symBinAddr: 0x1000062F0, symSize: 0x28 }
  - { offsetInCU: 0x1D77E, offset: 0x1D77E, size: 0x8, addend: 0x0, symName: __ZNKSt3__112basic_stringIcNS_11char_traitsIcEENS_9allocatorIcEEE7__allocB8ue170006Ev, symObjAddr: 0x22E8, symBinAddr: 0x100006318, symSize: 0x24 }
  - { offsetInCU: 0x1D7A4, offset: 0x1D7A4, size: 0x8, addend: 0x0, symName: __ZNSt3__114numeric_limitsImE3maxB8ue170006Ev, symObjAddr: 0x230C, symBinAddr: 0x10000633C, symSize: 0x14 }
  - { offsetInCU: 0x1D7B8, offset: 0x1D7B8, size: 0x8, addend: 0x0, symName: __ZNKSt3__117__compressed_pairINS_12basic_stringIcNS_11char_traitsIcEENS_9allocatorIcEEE5__repES5_E6secondB8ue170006Ev, symObjAddr: 0x2320, symBinAddr: 0x100006350, symSize: 0x24 }
  - { offsetInCU: 0x1D7DE, offset: 0x1D7DE, size: 0x8, addend: 0x0, symName: __ZNKSt3__122__compressed_pair_elemINS_9allocatorIcEELi1ELb1EE5__getB8ue170006Ev, symObjAddr: 0x2344, symBinAddr: 0x100006374, symSize: 0x14 }
  - { offsetInCU: 0x1D804, offset: 0x1D804, size: 0x8, addend: 0x0, symName: __ZNSt3__123__libcpp_numeric_limitsImLb1EE3maxB8ue170006Ev, symObjAddr: 0x2358, symBinAddr: 0x100006388, symSize: 0x8 }
  - { offsetInCU: 0x1D818, offset: 0x1D818, size: 0x8, addend: 0x0, symName: __ZNSt12length_errorC1B8ue170006EPKc, symObjAddr: 0x23C4, symBinAddr: 0x1000063F4, symSize: 0x34 }
  - { offsetInCU: 0x1D850, offset: 0x1D850, size: 0x8, addend: 0x0, symName: __ZNSt12length_errorC2B8ue170006EPKc, symObjAddr: 0x23F8, symBinAddr: 0x100006428, symSize: 0x4C }
  - { offsetInCU: 0x1D888, offset: 0x1D888, size: 0x8, addend: 0x0, symName: __ZNSt3__19allocatorIcE8allocateB8ue170006Em, symObjAddr: 0x2444, symBinAddr: 0x100006474, symSize: 0x58 }
  - { offsetInCU: 0x1D8BC, offset: 0x1D8BC, size: 0x8, addend: 0x0, symName: __ZNSt3__117__compressed_pairINS_12basic_stringIcNS_11char_traitsIcEENS_9allocatorIcEEE5__repES5_E6secondB8ue170006Ev, symObjAddr: 0x25A0, symBinAddr: 0x1000065D0, symSize: 0x24 }
  - { offsetInCU: 0x1D8E2, offset: 0x1D8E2, size: 0x8, addend: 0x0, symName: __ZNSt3__122__compressed_pair_elemINS_9allocatorIcEELi1ELb1EE5__getB8ue170006Ev, symObjAddr: 0x25C4, symBinAddr: 0x1000065F4, symSize: 0x14 }
  - { offsetInCU: 0x1D908, offset: 0x1D908, size: 0x8, addend: 0x0, symName: __ZNSt3__112basic_stringIcNS_11char_traitsIcEENS_9allocatorIcEEE10__align_itB8ue170006ILm16EEEmm, symObjAddr: 0x25D8, symBinAddr: 0x100006608, symSize: 0x1C }
  - { offsetInCU: 0x1D936, offset: 0x1D936, size: 0x8, addend: 0x0, symName: __ZNSt3__116allocator_traitsINS_9allocatorIcEEE37select_on_container_copy_constructionB8ue170006IS2_vvEES2_RKS2_, symObjAddr: 0x25F4, symBinAddr: 0x100006624, symSize: 0x10 }
  - { offsetInCU: 0x1D965, offset: 0x1D965, size: 0x8, addend: 0x0, symName: __ZNKSt3__112basic_stringIcNS_11char_traitsIcEENS_9allocatorIcEEE13get_allocatorB8ue170006Ev, symObjAddr: 0x2604, symBinAddr: 0x100006634, symSize: 0x24 }
  - { offsetInCU: 0x1D98B, offset: 0x1D98B, size: 0x8, addend: 0x0, symName: __ZNSt3__112basic_stringIcNS_11char_traitsIcEENS_9allocatorIcEEEC1B8ue170006ENS_24__uninitialized_size_tagEmRKS4_, symObjAddr: 0x2628, symBinAddr: 0x100006658, symSize: 0x3C }
  - { offsetInCU: 0x1D9DE, offset: 0x1D9DE, size: 0x8, addend: 0x0, symName: __ZNSt3__111char_traitsIcE4copyB8ue170006EPcPKcm, symObjAddr: 0x2678, symBinAddr: 0x1000066A8, symSize: 0x40 }
  - { offsetInCU: 0x1DA1D, offset: 0x1DA1D, size: 0x8, addend: 0x0, symName: __ZNKSt3__112basic_stringIcNS_11char_traitsIcEENS_9allocatorIcEEE4dataB8ue170006Ev, symObjAddr: 0x26B8, symBinAddr: 0x1000066E8, symSize: 0x28 }
  - { offsetInCU: 0x1DA43, offset: 0x1DA43, size: 0x8, addend: 0x0, symName: __ZNSt3__111char_traitsIcE6assignB8ue170006EPcmc, symObjAddr: 0x26E0, symBinAddr: 0x100006710, symSize: 0x44 }
  - { offsetInCU: 0x1DA82, offset: 0x1DA82, size: 0x8, addend: 0x0, symName: __ZNSt3__112basic_stringIcNS_11char_traitsIcEENS_9allocatorIcEEEC2B8ue170006ENS_24__uninitialized_size_tagEmRKS4_, symObjAddr: 0x2724, symBinAddr: 0x100006754, symSize: 0x110 }
  - { offsetInCU: 0x1DB01, offset: 0x1DB01, size: 0x8, addend: 0x0, symName: __ZNSt3__117__compressed_pairINS_12basic_stringIcNS_11char_traitsIcEENS_9allocatorIcEEE5__repES5_EC1B8ue170006INS_18__default_init_tagERKS5_EEOT_OT0_, symObjAddr: 0x2834, symBinAddr: 0x100006864, symSize: 0x3C }
  - { offsetInCU: 0x1DB59, offset: 0x1DB59, size: 0x8, addend: 0x0, symName: __ZNSt3__116allocator_traitsINS_9allocatorIcEEE8allocateB8ue170006ERS2_m, symObjAddr: 0x2870, symBinAddr: 0x1000068A0, symSize: 0x2C }
  - { offsetInCU: 0x1DB8C, offset: 0x1DB8C, size: 0x8, addend: 0x0, symName: __ZNSt3__117__compressed_pairINS_12basic_stringIcNS_11char_traitsIcEENS_9allocatorIcEEE5__repES5_EC2B8ue170006INS_18__default_init_tagERKS5_EEOT_OT0_, symObjAddr: 0x289C, symBinAddr: 0x1000068CC, symSize: 0x40 }
  - { offsetInCU: 0x1DBE4, offset: 0x1DBE4, size: 0x8, addend: 0x0, symName: __ZNSt3__122__compressed_pair_elemINS_9allocatorIcEELi1ELb1EEC2B8ue170006IRKS2_vEEOT_, symObjAddr: 0x28DC, symBinAddr: 0x10000690C, symSize: 0x18 }
  - { offsetInCU: 0x1DC50, offset: 0x1DC50, size: 0x8, addend: 0x0, symName: __ZNKSt3__114__copy_trivialclB8ue170006IKccLi0EEENS_4pairIPT_PT0_EES5_S5_S7_, symObjAddr: 0x2AF0, symBinAddr: 0x100006B20, symSize: 0x48 }
  - { offsetInCU: 0x1DCD6, offset: 0x1DCD6, size: 0x8, addend: 0x0, symName: __ZNSt3__119__unwrap_range_implIPKcS2_E8__unwrapB8ue170006ES2_S2_, symObjAddr: 0x2BFC, symBinAddr: 0x100006C2C, symSize: 0x58 }
  - { offsetInCU: 0x1DD0D, offset: 0x1DD0D, size: 0x8, addend: 0x0, symName: __ZNSt3__14pairIPKcS2_EC1B8ue170006IS2_S2_LPv0EEEOT_OT0_, symObjAddr: 0x2C78, symBinAddr: 0x100006CA8, symSize: 0x3C }
  - { offsetInCU: 0x1DD6B, offset: 0x1DD6B, size: 0x8, addend: 0x0, symName: __ZNSt3__118__unwrap_iter_implIPKcLb1EE8__unwrapB8ue170006ES2_, symObjAddr: 0x2CB4, symBinAddr: 0x100006CE4, symSize: 0x24 }
  - { offsetInCU: 0x1DD8E, offset: 0x1DD8E, size: 0x8, addend: 0x0, symName: __ZNSt3__14pairIPKcS2_EC2B8ue170006IS2_S2_LPv0EEEOT_OT0_, symObjAddr: 0x2CEC, symBinAddr: 0x100006D1C, symSize: 0x34 }
  - { offsetInCU: 0x1DDF8, offset: 0x1DDF8, size: 0x8, addend: 0x0, symName: __ZNSt3__14pairIPKcPcEC1B8ue170006IRS2_S3_LPv0EEEOT_OT0_, symObjAddr: 0x2E34, symBinAddr: 0x100006E64, symSize: 0x3C }
  - { offsetInCU: 0x1DE56, offset: 0x1DE56, size: 0x8, addend: 0x0, symName: __ZNSt3__14pairIPKcPcEC2B8ue170006IRS2_S3_LPv0EEEOT_OT0_, symObjAddr: 0x2E70, symBinAddr: 0x100006EA0, symSize: 0x34 }
  - { offsetInCU: 0x1DEB4, offset: 0x1DEB4, size: 0x8, addend: 0x0, symName: __ZNSt3__118__unwrap_iter_implIPcLb1EE8__unwrapB8ue170006ES1_, symObjAddr: 0x2EA4, symBinAddr: 0x100006ED4, symSize: 0x24 }
  - { offsetInCU: 0x1DED7, offset: 0x1DED7, size: 0x8, addend: 0x0, symName: __ZNSt3__14pairIPKcPcEC1B8ue170006IS2_S3_LPv0EEEOT_OT0_, symObjAddr: 0x2EC8, symBinAddr: 0x100006EF8, symSize: 0x3C }
  - { offsetInCU: 0x1DF35, offset: 0x1DF35, size: 0x8, addend: 0x0, symName: __ZNSt3__14pairIPKcPcEC2B8ue170006IS2_S3_LPv0EEEOT_OT0_, symObjAddr: 0x2F04, symBinAddr: 0x100006F34, symSize: 0x34 }
  - { offsetInCU: 0x1DF93, offset: 0x1DF93, size: 0x8, addend: 0x0, symName: __ZNSt3__119__unwrap_range_implIPKcS2_E8__rewrapB8ue170006ES2_S2_, symObjAddr: 0x2F38, symBinAddr: 0x100006F68, symSize: 0x2C }
  - { offsetInCU: 0x1DFC4, offset: 0x1DFC4, size: 0x8, addend: 0x0, symName: __ZNSt3__118__unwrap_iter_implIPKcLb1EE8__rewrapB8ue170006ES2_S2_, symObjAddr: 0x2FA0, symBinAddr: 0x100006FD0, symSize: 0x48 }
  - { offsetInCU: 0x1DFF5, offset: 0x1DFF5, size: 0x8, addend: 0x0, symName: __ZNSt3__118__unwrap_iter_implIPcLb1EE8__rewrapB8ue170006ES1_S1_, symObjAddr: 0x2FE8, symBinAddr: 0x100007018, symSize: 0x48 }
  - { offsetInCU: 0x1E026, offset: 0x1E026, size: 0x8, addend: 0x0, symName: __ZNKSt3__112basic_stringIcNS_11char_traitsIcEENS_9allocatorIcEEE13__get_pointerB8ue170006Ev, symObjAddr: 0x3030, symBinAddr: 0x100007060, symSize: 0x54 }
  - { offsetInCU: 0x1E04C, offset: 0x1E04C, size: 0x8, addend: 0x0, symName: __ZNKSt3__112basic_stringIcNS_11char_traitsIcEENS_9allocatorIcEEE18__get_long_pointerB8ue170006Ev, symObjAddr: 0x3084, symBinAddr: 0x1000070B4, symSize: 0x28 }
  - { offsetInCU: 0x1E072, offset: 0x1E072, size: 0x8, addend: 0x0, symName: __ZNKSt3__112basic_stringIcNS_11char_traitsIcEENS_9allocatorIcEEE19__get_short_pointerB8ue170006Ev, symObjAddr: 0x30AC, symBinAddr: 0x1000070DC, symSize: 0x28 }
  - { offsetInCU: 0x1E098, offset: 0x1E098, size: 0x8, addend: 0x0, symName: __ZNSt3__114pointer_traitsIPKcE10pointer_toB8ue170006ERS1_, symObjAddr: 0x30D4, symBinAddr: 0x100007104, symSize: 0x14 }
  - { offsetInCU: 0x1E0BB, offset: 0x1E0BB, size: 0x8, addend: 0x0, symName: __ZNSt3__126linear_congruential_engineIjLj48271ELj0ELj2147483647EEC2B8ue170006Ej, symObjAddr: 0x31A4, symBinAddr: 0x1000071D4, symSize: 0x34 }
  - { offsetInCU: 0x1E0F3, offset: 0x1E0F3, size: 0x8, addend: 0x0, symName: __ZNSt3__126linear_congruential_engineIjLj48271ELj0ELj2147483647EE4seedB8ue170006Ej, symObjAddr: 0x31D8, symBinAddr: 0x100007208, symSize: 0x2C }
  - { offsetInCU: 0x1E127, offset: 0x1E127, size: 0x8, addend: 0x0, symName: __ZNSt3__126linear_congruential_engineIjLj48271ELj0ELj2147483647EE4seedB8ue170006ENS_17integral_constantIbLb0EEENS2_IbLb1EEEj, symObjAddr: 0x3204, symBinAddr: 0x100007234, symSize: 0x74 }
  - { offsetInCU: 0x1E172, offset: 0x1E172, size: 0x8, addend: 0x0, symName: __ZNSt3__13mapINS_12basic_stringIcNS_11char_traitsIcEENS_9allocatorIcEEEEiNS_4lessIS6_EENS4_INS_4pairIKS6_iEEEEEC2B8ue170006Ev, symObjAddr: 0x3278, symBinAddr: 0x1000072A8, symSize: 0x40 }
  - { offsetInCU: 0x1E19C, offset: 0x1E19C, size: 0x8, addend: 0x0, symName: __ZNSt3__119__map_value_compareINS_12basic_stringIcNS_11char_traitsIcEENS_9allocatorIcEEEENS_12__value_typeIS6_iEENS_4lessIS6_EELb1EEC1B8ue170006ESA_, symObjAddr: 0x32B8, symBinAddr: 0x1000072E8, symSize: 0x2C }
  - { offsetInCU: 0x1E1D5, offset: 0x1E1D5, size: 0x8, addend: 0x0, symName: __ZNSt3__16__treeINS_12__value_typeINS_12basic_stringIcNS_11char_traitsIcEENS_9allocatorIcEEEEiEENS_19__map_value_compareIS7_S8_NS_4lessIS7_EELb1EEENS5_IS8_EEEC1ERKSC_, symObjAddr: 0x32E4, symBinAddr: 0x100007314, symSize: 0x34 }
  - { offsetInCU: 0x1E210, offset: 0x1E210, size: 0x8, addend: 0x0, symName: __ZNSt3__119__map_value_compareINS_12basic_stringIcNS_11char_traitsIcEENS_9allocatorIcEEEENS_12__value_typeIS6_iEENS_4lessIS6_EELb1EEC2B8ue170006ESA_, symObjAddr: 0x3318, symBinAddr: 0x100007348, symSize: 0x14 }
  - { offsetInCU: 0x1E249, offset: 0x1E249, size: 0x8, addend: 0x0, symName: __ZNSt3__16__treeINS_12__value_typeINS_12basic_stringIcNS_11char_traitsIcEENS_9allocatorIcEEEEiEENS_19__map_value_compareIS7_S8_NS_4lessIS7_EELb1EEENS5_IS8_EEEC2ERKSC_, symObjAddr: 0x332C, symBinAddr: 0x10000735C, symSize: 0x7C }
  - { offsetInCU: 0x1E284, offset: 0x1E284, size: 0x8, addend: 0x0, symName: __ZNSt3__117__compressed_pairINS_15__tree_end_nodeIPNS_16__tree_node_baseIPvEEEENS_9allocatorINS_11__tree_nodeINS_12__value_typeINS_12basic_stringIcNS_11char_traitsIcEENS7_IcEEEEiEES3_EEEEEC1B8ue170006ILb1EvEEv, symObjAddr: 0x33A8, symBinAddr: 0x1000073D8, symSize: 0x2C }
  - { offsetInCU: 0x1E2BF, offset: 0x1E2BF, size: 0x8, addend: 0x0, symName: __ZNSt3__117__compressed_pairImNS_19__map_value_compareINS_12basic_stringIcNS_11char_traitsIcEENS_9allocatorIcEEEENS_12__value_typeIS7_iEENS_4lessIS7_EELb1EEEEC1B8ue170006IiRKSC_EEOT_OT0_, symObjAddr: 0x33D4, symBinAddr: 0x100007404, symSize: 0x3C }
  - { offsetInCU: 0x1E317, offset: 0x1E317, size: 0x8, addend: 0x0, symName: __ZNSt3__16__treeINS_12__value_typeINS_12basic_stringIcNS_11char_traitsIcEENS_9allocatorIcEEEEiEENS_19__map_value_compareIS7_S8_NS_4lessIS7_EELb1EEENS5_IS8_EEE10__end_nodeB8ue170006Ev, symObjAddr: 0x3410, symBinAddr: 0x100007440, symSize: 0x2C }
  - { offsetInCU: 0x1E33D, offset: 0x1E33D, size: 0x8, addend: 0x0, symName: __ZNSt3__16__treeINS_12__value_typeINS_12basic_stringIcNS_11char_traitsIcEENS_9allocatorIcEEEEiEENS_19__map_value_compareIS7_S8_NS_4lessIS7_EELb1EEENS5_IS8_EEE12__begin_nodeB8ue170006Ev, symObjAddr: 0x343C, symBinAddr: 0x10000746C, symSize: 0x14 }
  - { offsetInCU: 0x1E363, offset: 0x1E363, size: 0x8, addend: 0x0, symName: __ZNSt3__117__compressed_pairINS_15__tree_end_nodeIPNS_16__tree_node_baseIPvEEEENS_9allocatorINS_11__tree_nodeINS_12__value_typeINS_12basic_stringIcNS_11char_traitsIcEENS7_IcEEEEiEES3_EEEEEC2B8ue170006ILb1EvEEv, symObjAddr: 0x3450, symBinAddr: 0x100007480, symSize: 0x34 }
  - { offsetInCU: 0x1E398, offset: 0x1E398, size: 0x8, addend: 0x0, symName: __ZNSt3__122__compressed_pair_elemINS_15__tree_end_nodeIPNS_16__tree_node_baseIPvEEEELi0ELb0EEC2B8ue170006ENS_16__value_init_tagE, symObjAddr: 0x3484, symBinAddr: 0x1000074B4, symSize: 0x2C }
  - { offsetInCU: 0x1E3CC, offset: 0x1E3CC, size: 0x8, addend: 0x0, symName: __ZNSt3__122__compressed_pair_elemINS_9allocatorINS_11__tree_nodeINS_12__value_typeINS_12basic_stringIcNS_11char_traitsIcEENS1_IcEEEEiEEPvEEEELi1ELb1EEC2B8ue170006ENS_16__value_init_tagE, symObjAddr: 0x34B0, symBinAddr: 0x1000074E0, symSize: 0x2C }
  - { offsetInCU: 0x1E400, offset: 0x1E400, size: 0x8, addend: 0x0, symName: __ZNSt3__115__tree_end_nodeIPNS_16__tree_node_baseIPvEEEC1B8ue170006Ev, symObjAddr: 0x34DC, symBinAddr: 0x10000750C, symSize: 0x2C }
  - { offsetInCU: 0x1E42A, offset: 0x1E42A, size: 0x8, addend: 0x0, symName: __ZNSt3__115__tree_end_nodeIPNS_16__tree_node_baseIPvEEEC2B8ue170006Ev, symObjAddr: 0x3508, symBinAddr: 0x100007538, symSize: 0x18 }
  - { offsetInCU: 0x1E454, offset: 0x1E454, size: 0x8, addend: 0x0, symName: __ZNSt3__19allocatorINS_11__tree_nodeINS_12__value_typeINS_12basic_stringIcNS_11char_traitsIcEENS0_IcEEEEiEEPvEEEC2B8ue170006Ev, symObjAddr: 0x3520, symBinAddr: 0x100007550, symSize: 0x2C }
  - { offsetInCU: 0x1E47E, offset: 0x1E47E, size: 0x8, addend: 0x0, symName: __ZNSt3__116__non_trivial_ifILb1ENS_9allocatorINS_11__tree_nodeINS_12__value_typeINS_12basic_stringIcNS_11char_traitsIcEENS1_IcEEEEiEEPvEEEEEC2B8ue170006Ev, symObjAddr: 0x354C, symBinAddr: 0x10000757C, symSize: 0x14 }
  - { offsetInCU: 0x1E4A8, offset: 0x1E4A8, size: 0x8, addend: 0x0, symName: __ZNSt3__117__compressed_pairImNS_19__map_value_compareINS_12basic_stringIcNS_11char_traitsIcEENS_9allocatorIcEEEENS_12__value_typeIS7_iEENS_4lessIS7_EELb1EEEEC2B8ue170006IiRKSC_EEOT_OT0_, symObjAddr: 0x3560, symBinAddr: 0x100007590, symSize: 0x44 }
  - { offsetInCU: 0x1E500, offset: 0x1E500, size: 0x8, addend: 0x0, symName: __ZNSt3__122__compressed_pair_elemImLi0ELb0EEC2B8ue170006IivEEOT_, symObjAddr: 0x35A4, symBinAddr: 0x1000075D4, symSize: 0x24 }
  - { offsetInCU: 0x1E542, offset: 0x1E542, size: 0x8, addend: 0x0, symName: __ZNSt3__122__compressed_pair_elemINS_19__map_value_compareINS_12basic_stringIcNS_11char_traitsIcEENS_9allocatorIcEEEENS_12__value_typeIS7_iEENS_4lessIS7_EELb1EEELi1ELb1EEC2B8ue170006IRKSC_vEEOT_, symObjAddr: 0x35C8, symBinAddr: 0x1000075F8, symSize: 0x18 }
  - { offsetInCU: 0x1E584, offset: 0x1E584, size: 0x8, addend: 0x0, symName: __ZNSt3__114pointer_traitsIPNS_15__tree_end_nodeIPNS_16__tree_node_baseIPvEEEEE10pointer_toB8ue170006ERS6_, symObjAddr: 0x35E0, symBinAddr: 0x100007610, symSize: 0x14 }
  - { offsetInCU: 0x1E5A7, offset: 0x1E5A7, size: 0x8, addend: 0x0, symName: __ZNSt3__117__compressed_pairINS_15__tree_end_nodeIPNS_16__tree_node_baseIPvEEEENS_9allocatorINS_11__tree_nodeINS_12__value_typeINS_12basic_stringIcNS_11char_traitsIcEENS7_IcEEEEiEES3_EEEEE5firstB8ue170006Ev, symObjAddr: 0x35F4, symBinAddr: 0x100007624, symSize: 0x24 }
  - { offsetInCU: 0x1E5CD, offset: 0x1E5CD, size: 0x8, addend: 0x0, symName: __ZNSt3__122__compressed_pair_elemINS_15__tree_end_nodeIPNS_16__tree_node_baseIPvEEEELi0ELb0EE5__getB8ue170006Ev, symObjAddr: 0x3618, symBinAddr: 0x100007648, symSize: 0x14 }
  - { offsetInCU: 0x1E5F3, offset: 0x1E5F3, size: 0x8, addend: 0x0, symName: __ZNSt3__13mapINS_12basic_stringIcNS_11char_traitsIcEENS_9allocatorIcEEEEiNS_4lessIS6_EENS4_INS_4pairIKS6_iEEEEED2B8ue170006Ev, symObjAddr: 0x362C, symBinAddr: 0x10000765C, symSize: 0x2C }
  - { offsetInCU: 0x1E61D, offset: 0x1E61D, size: 0x8, addend: 0x0, symName: __ZNSt3__16__treeINS_12__value_typeINS_12basic_stringIcNS_11char_traitsIcEENS_9allocatorIcEEEEiEENS_19__map_value_compareIS7_S8_NS_4lessIS7_EELb1EEENS5_IS8_EEED1Ev, symObjAddr: 0x3658, symBinAddr: 0x100007688, symSize: 0x2C }
  - { offsetInCU: 0x1E649, offset: 0x1E649, size: 0x8, addend: 0x0, symName: __ZNSt3__16__treeINS_12__value_typeINS_12basic_stringIcNS_11char_traitsIcEENS_9allocatorIcEEEEiEENS_19__map_value_compareIS7_S8_NS_4lessIS7_EELb1EEENS5_IS8_EEED2Ev, symObjAddr: 0x3684, symBinAddr: 0x1000076B4, symSize: 0x38 }
  - { offsetInCU: 0x1E675, offset: 0x1E675, size: 0x8, addend: 0x0, symName: __ZNSt3__16__treeINS_12__value_typeINS_12basic_stringIcNS_11char_traitsIcEENS_9allocatorIcEEEEiEENS_19__map_value_compareIS7_S8_NS_4lessIS7_EELb1EEENS5_IS8_EEE7destroyEPNS_11__tree_nodeIS8_PvEE, symObjAddr: 0x36BC, symBinAddr: 0x1000076EC, symSize: 0xAC }
  - { offsetInCU: 0x1E6C1, offset: 0x1E6C1, size: 0x8, addend: 0x0, symName: __ZNKSt3__16__treeINS_12__value_typeINS_12basic_stringIcNS_11char_traitsIcEENS_9allocatorIcEEEEiEENS_19__map_value_compareIS7_S8_NS_4lessIS7_EELb1EEENS5_IS8_EEE6__rootB8ue170006Ev, symObjAddr: 0x3768, symBinAddr: 0x100007798, symSize: 0x28 }
  - { offsetInCU: 0x1E6E7, offset: 0x1E6E7, size: 0x8, addend: 0x0, symName: __ZNSt3__16__treeINS_12__value_typeINS_12basic_stringIcNS_11char_traitsIcEENS_9allocatorIcEEEEiEENS_19__map_value_compareIS7_S8_NS_4lessIS7_EELb1EEENS5_IS8_EEE12__node_allocB8ue170006Ev, symObjAddr: 0x3790, symBinAddr: 0x1000077C0, symSize: 0x28 }
  - { offsetInCU: 0x1E70D, offset: 0x1E70D, size: 0x8, addend: 0x0, symName: __ZNSt3__116allocator_traitsINS_9allocatorINS_11__tree_nodeINS_12__value_typeINS_12basic_stringIcNS_11char_traitsIcEENS1_IcEEEEiEEPvEEEEE7destroyB8ue170006INS_4pairIKS8_iEEvvEEvRSC_PT_, symObjAddr: 0x37B8, symBinAddr: 0x1000077E8, symSize: 0x28 }
  - { offsetInCU: 0x1E747, offset: 0x1E747, size: 0x8, addend: 0x0, symName: __ZNSt3__122__tree_key_value_typesINS_12__value_typeINS_12basic_stringIcNS_11char_traitsIcEENS_9allocatorIcEEEEiEEE9__get_ptrB8ue170006ERS8_, symObjAddr: 0x37E0, symBinAddr: 0x100007810, symSize: 0x24 }
  - { offsetInCU: 0x1E76B, offset: 0x1E76B, size: 0x8, addend: 0x0, symName: __ZNSt3__116allocator_traitsINS_9allocatorINS_11__tree_nodeINS_12__value_typeINS_12basic_stringIcNS_11char_traitsIcEENS1_IcEEEEiEEPvEEEEE10deallocateB8ue170006ERSC_PSB_m, symObjAddr: 0x3804, symBinAddr: 0x100007834, symSize: 0x34 }
  - { offsetInCU: 0x1E7AD, offset: 0x1E7AD, size: 0x8, addend: 0x0, symName: __ZNSt3__117__compressed_pairINS_15__tree_end_nodeIPNS_16__tree_node_baseIPvEEEENS_9allocatorINS_11__tree_nodeINS_12__value_typeINS_12basic_stringIcNS_11char_traitsIcEENS7_IcEEEEiEES3_EEEEE6secondB8ue170006Ev, symObjAddr: 0x3838, symBinAddr: 0x100007868, symSize: 0x24 }
  - { offsetInCU: 0x1E7D3, offset: 0x1E7D3, size: 0x8, addend: 0x0, symName: __ZNSt3__122__compressed_pair_elemINS_9allocatorINS_11__tree_nodeINS_12__value_typeINS_12basic_stringIcNS_11char_traitsIcEENS1_IcEEEEiEEPvEEEELi1ELb1EE5__getB8ue170006Ev, symObjAddr: 0x385C, symBinAddr: 0x10000788C, symSize: 0x14 }
  - { offsetInCU: 0x1E7F9, offset: 0x1E7F9, size: 0x8, addend: 0x0, symName: __ZNSt3__14pairIKNS_12basic_stringIcNS_11char_traitsIcEENS_9allocatorIcEEEEiED1Ev, symObjAddr: 0x38B8, symBinAddr: 0x1000078E8, symSize: 0x2C }
  - { offsetInCU: 0x1E825, offset: 0x1E825, size: 0x8, addend: 0x0, symName: __ZNSt3__14pairIKNS_12basic_stringIcNS_11char_traitsIcEENS_9allocatorIcEEEEiED2Ev, symObjAddr: 0x38E4, symBinAddr: 0x100007914, symSize: 0x2C }
  - { offsetInCU: 0x1E851, offset: 0x1E851, size: 0x8, addend: 0x0, symName: __ZNSt3__112__value_typeINS_12basic_stringIcNS_11char_traitsIcEENS_9allocatorIcEEEEiE11__get_valueB8ue170006Ev, symObjAddr: 0x3910, symBinAddr: 0x100007940, symSize: 0x24 }
  - { offsetInCU: 0x1E877, offset: 0x1E877, size: 0x8, addend: 0x0, symName: __ZNSt3__19allocatorINS_11__tree_nodeINS_12__value_typeINS_12basic_stringIcNS_11char_traitsIcEENS0_IcEEEEiEEPvEEE10deallocateB8ue170006EPSA_m, symObjAddr: 0x396C, symBinAddr: 0x10000799C, symSize: 0x40 }
  - { offsetInCU: 0x1E8B9, offset: 0x1E8B9, size: 0x8, addend: 0x0, symName: __ZNKSt3__16__treeINS_12__value_typeINS_12basic_stringIcNS_11char_traitsIcEENS_9allocatorIcEEEEiEENS_19__map_value_compareIS7_S8_NS_4lessIS7_EELb1EEENS5_IS8_EEE10__end_nodeB8ue170006Ev, symObjAddr: 0x3AB4, symBinAddr: 0x100007AE4, symSize: 0x2C }
  - { offsetInCU: 0x1E8DF, offset: 0x1E8DF, size: 0x8, addend: 0x0, symName: __ZNKSt3__117__compressed_pairINS_15__tree_end_nodeIPNS_16__tree_node_baseIPvEEEENS_9allocatorINS_11__tree_nodeINS_12__value_typeINS_12basic_stringIcNS_11char_traitsIcEENS7_IcEEEEiEES3_EEEEE5firstB8ue170006Ev, symObjAddr: 0x3AE0, symBinAddr: 0x100007B10, symSize: 0x24 }
  - { offsetInCU: 0x1E905, offset: 0x1E905, size: 0x8, addend: 0x0, symName: __ZNKSt3__122__compressed_pair_elemINS_15__tree_end_nodeIPNS_16__tree_node_baseIPvEEEELi0ELb0EE5__getB8ue170006Ev, symObjAddr: 0x3B04, symBinAddr: 0x100007B34, symSize: 0x14 }
  - { offsetInCU: 0x1E92B, offset: 0x1E92B, size: 0x8, addend: 0x0, symName: __ZNSt3__19basic_iosIcNS_11char_traitsIcEEEC2B8ue170006Ev, symObjAddr: 0x3B18, symBinAddr: 0x100007B48, symSize: 0x44 }
  - { offsetInCU: 0x1E955, offset: 0x1E955, size: 0x8, addend: 0x0, symName: __ZNSt3__113basic_istreamIcNS_11char_traitsIcEEEC2B8ue170006EPNS_15basic_streambufIcS2_EE, symObjAddr: 0x3B5C, symBinAddr: 0x100007B8C, symSize: 0x64 }
  - { offsetInCU: 0x1E99A, offset: 0x1E99A, size: 0x8, addend: 0x0, symName: __ZNSt3__113basic_filebufIcNS_11char_traitsIcEEE4openERKNS_12basic_stringIcS2_NS_9allocatorIcEEEEj, symObjAddr: 0x3BC0, symBinAddr: 0x100007BF0, symSize: 0x44 }
  - { offsetInCU: 0x1E9DE, offset: 0x1E9DE, size: 0x8, addend: 0x0, symName: __ZNSt3__19basic_iosIcNS_11char_traitsIcEEE8setstateB8ue170006Ej, symObjAddr: 0x3C04, symBinAddr: 0x100007C34, symSize: 0x2C }
  - { offsetInCU: 0x1EA13, offset: 0x1EA13, size: 0x8, addend: 0x0, symName: __ZNSt3__18ios_baseC2B8ue170006Ev, symObjAddr: 0x3C30, symBinAddr: 0x100007C60, symSize: 0x24 }
  - { offsetInCU: 0x1EA3D, offset: 0x1EA3D, size: 0x8, addend: 0x0, symName: __ZNSt3__19basic_iosIcNS_11char_traitsIcEEE4initB8ue170006EPNS_15basic_streambufIcS2_EE, symObjAddr: 0x3C54, symBinAddr: 0x100007C84, symSize: 0x44 }
  - { offsetInCU: 0x1EA74, offset: 0x1EA74, size: 0x8, addend: 0x0, symName: __ZNSt3__111char_traitsIcE3eofB8ue170006Ev, symObjAddr: 0x3C98, symBinAddr: 0x100007CC8, symSize: 0x8 }
  - { offsetInCU: 0x1EA88, offset: 0x1EA88, size: 0x8, addend: 0x0, symName: __ZNKSt3__112basic_stringIcNS_11char_traitsIcEENS_9allocatorIcEEE5c_strB8ue170006Ev, symObjAddr: 0x3CA0, symBinAddr: 0x100007CD0, symSize: 0x24 }
  - { offsetInCU: 0x1EAAE, offset: 0x1EAAE, size: 0x8, addend: 0x0, symName: __ZNSt3__18ios_base8setstateB8ue170006Ej, symObjAddr: 0x3CC4, symBinAddr: 0x100007CF4, symSize: 0x34 }
  - { offsetInCU: 0x1EAE5, offset: 0x1EAE5, size: 0x8, addend: 0x0, symName: __ZNKSt3__19basic_iosIcNS_11char_traitsIcEEE5widenB8ue170006Ec, symObjAddr: 0x3CF8, symBinAddr: 0x100007D28, symSize: 0x84 }
  - { offsetInCU: 0x1EB58, offset: 0x1EB58, size: 0x8, addend: 0x0, symName: __ZNKSt3__15ctypeIcE5widenB8ue170006Ec, symObjAddr: 0x3DA8, symBinAddr: 0x100007DD8, symSize: 0x38 }
  - { offsetInCU: 0x1EB8D, offset: 0x1EB8D, size: 0x8, addend: 0x0, symName: __ZNKSt3__19basic_iosIcNS_11char_traitsIcEEE4failB8ue170006Ev, symObjAddr: 0x3DE0, symBinAddr: 0x100007E10, symSize: 0x28 }
  - { offsetInCU: 0x1EBB3, offset: 0x1EBB3, size: 0x8, addend: 0x0, symName: __ZNKSt3__18ios_base4failB8ue170006Ev, symObjAddr: 0x3E08, symBinAddr: 0x100007E38, symSize: 0x28 }
  - { offsetInCU: 0x1EBDB, offset: 0x1EBDB, size: 0x8, addend: 0x0, symName: __ZNSt3__115basic_stringbufIcNS_11char_traitsIcEENS_9allocatorIcEEEC1B8ue170006ERKNS_12basic_stringIcS2_S4_EEj, symObjAddr: 0x3E30, symBinAddr: 0x100007E60, symSize: 0x3C }
  - { offsetInCU: 0x1EC23, offset: 0x1EC23, size: 0x8, addend: 0x0, symName: __ZNSt3__115basic_stringbufIcNS_11char_traitsIcEENS_9allocatorIcEEEC2B8ue170006ERKNS_12basic_stringIcS2_S4_EEj, symObjAddr: 0x3E6C, symBinAddr: 0x100007E9C, symSize: 0xB4 }
  - { offsetInCU: 0x1EC6B, offset: 0x1EC6B, size: 0x8, addend: 0x0, symName: __ZNSt3__112basic_stringIcNS_11char_traitsIcEENS_9allocatorIcEEEC1B8ue170006ERKS4_, symObjAddr: 0x3F20, symBinAddr: 0x100007F50, symSize: 0x34 }
  - { offsetInCU: 0x1ECA4, offset: 0x1ECA4, size: 0x8, addend: 0x0, symName: __ZNSt3__112basic_stringIcNS_11char_traitsIcEENS_9allocatorIcEEEC2B8ue170006ERKS4_, symObjAddr: 0x3F54, symBinAddr: 0x100007F84, symSize: 0x48 }
  - { offsetInCU: 0x1ED01, offset: 0x1ED01, size: 0x8, addend: 0x0, symName: __ZNKSt3__113basic_istreamIcNS_11char_traitsIcEEE6sentrycvbB8ue170006Ev, symObjAddr: 0x3F9C, symBinAddr: 0x100007FCC, symSize: 0x1C }
  - { offsetInCU: 0x1ED27, offset: 0x1ED27, size: 0x8, addend: 0x0, symName: __ZNSt3__112basic_stringIcNS_11char_traitsIcEENS_9allocatorIcEEE5clearB8ue170006Ev, symObjAddr: 0x3FB8, symBinAddr: 0x100007FE8, symSize: 0x78 }
  - { offsetInCU: 0x1ED4F, offset: 0x1ED4F, size: 0x8, addend: 0x0, symName: __ZNKSt3__19basic_iosIcNS_11char_traitsIcEEE5rdbufB8ue170006Ev, symObjAddr: 0x4030, symBinAddr: 0x100008060, symSize: 0x24 }
  - { offsetInCU: 0x1ED77, offset: 0x1ED77, size: 0x8, addend: 0x0, symName: __ZNSt3__115basic_streambufIcNS_11char_traitsIcEEE6sbumpcB8ue170006Ev, symObjAddr: 0x4054, symBinAddr: 0x100008084, symSize: 0x78 }
  - { offsetInCU: 0x1ED9D, offset: 0x1ED9D, size: 0x8, addend: 0x0, symName: __ZNSt3__111char_traitsIcE11eq_int_typeB8ue170006Eii, symObjAddr: 0x40CC, symBinAddr: 0x1000080FC, symSize: 0x28 }
  - { offsetInCU: 0x1EDD0, offset: 0x1EDD0, size: 0x8, addend: 0x0, symName: __ZNSt3__111char_traitsIcE12to_char_typeB8ue170006Ei, symObjAddr: 0x40F4, symBinAddr: 0x100008124, symSize: 0x18 }
  - { offsetInCU: 0x1EDF3, offset: 0x1EDF3, size: 0x8, addend: 0x0, symName: __ZNSt3__111char_traitsIcE2eqEcc, symObjAddr: 0x410C, symBinAddr: 0x10000813C, symSize: 0x28 }
  - { offsetInCU: 0x1EE24, offset: 0x1EE24, size: 0x8, addend: 0x0, symName: __ZNSt3__18ios_base18__setstate_nothrowB8ue170006Ej, symObjAddr: 0x4134, symBinAddr: 0x100008164, symSize: 0x64 }
  - { offsetInCU: 0x1EE59, offset: 0x1EE59, size: 0x8, addend: 0x0, symName: __ZNKSt3__19basic_iosIcNS_11char_traitsIcEEE10exceptionsB8ue170006Ev, symObjAddr: 0x4198, symBinAddr: 0x1000081C8, symSize: 0x24 }
  - { offsetInCU: 0x1EE7F, offset: 0x1EE7F, size: 0x8, addend: 0x0, symName: __ZNKSt3__18ios_base5rdbufB8ue170006Ev, symObjAddr: 0x41BC, symBinAddr: 0x1000081EC, symSize: 0x18 }
  - { offsetInCU: 0x1EEA5, offset: 0x1EEA5, size: 0x8, addend: 0x0, symName: __ZNSt3__111char_traitsIcE11to_int_typeB8ue170006Ec, symObjAddr: 0x41D4, symBinAddr: 0x100008204, symSize: 0x14 }
  - { offsetInCU: 0x1EEC9, offset: 0x1EEC9, size: 0x8, addend: 0x0, symName: __ZNKSt3__18ios_base10exceptionsB8ue170006Ev, symObjAddr: 0x41E8, symBinAddr: 0x100008218, symSize: 0x18 }
  - { offsetInCU: 0x1EF09, offset: 0x1EF09, size: 0x8, addend: 0x0, symName: __ZNSt3__16__treeINS_12__value_typeINS_12basic_stringIcNS_11char_traitsIcEENS_9allocatorIcEEEEiEENS_19__map_value_compareIS7_S8_NS_4lessIS7_EELb1EEENS5_IS8_EEE25__emplace_unique_key_argsIS7_JRKNS_21piecewise_construct_tENS_5tupleIJRKS7_EEENSJ_IJEEEEEENS_4pairINS_15__tree_iteratorIS8_PNS_11__tree_nodeIS8_PvEElEEbEERKT_DpOT0_, symObjAddr: 0x4200, symBinAddr: 0x100008230, symSize: 0x100 }
  - { offsetInCU: 0x1EFDF, offset: 0x1EFDF, size: 0x8, addend: 0x0, symName: __ZNKSt3__115__tree_iteratorINS_12__value_typeINS_12basic_stringIcNS_11char_traitsIcEENS_9allocatorIcEEEEiEEPNS_11__tree_nodeIS8_PvEElEptB8ue170006Ev, symObjAddr: 0x4330, symBinAddr: 0x100008360, symSize: 0x2C }
  - { offsetInCU: 0x1F005, offset: 0x1F005, size: 0x8, addend: 0x0, symName: __ZNSt3__16__treeINS_12__value_typeINS_12basic_stringIcNS_11char_traitsIcEENS_9allocatorIcEEEEiEENS_19__map_value_compareIS7_S8_NS_4lessIS7_EELb1EEENS5_IS8_EEE12__find_equalIS7_EERPNS_16__tree_node_baseIPvEERPNS_15__tree_end_nodeISJ_EERKT_, symObjAddr: 0x435C, symBinAddr: 0x10000838C, symSize: 0x184 }
  - { offsetInCU: 0x1F072, offset: 0x1F072, size: 0x8, addend: 0x0, symName: __ZNSt3__16__treeINS_12__value_typeINS_12basic_stringIcNS_11char_traitsIcEENS_9allocatorIcEEEEiEENS_19__map_value_compareIS7_S8_NS_4lessIS7_EELb1EEENS5_IS8_EEE16__construct_nodeIJRKNS_21piecewise_construct_tENS_5tupleIJRKS7_EEENSJ_IJEEEEEENS_10unique_ptrINS_11__tree_nodeIS8_PvEENS_22__tree_node_destructorINS5_ISR_EEEEEEDpOT_, symObjAddr: 0x44E0, symBinAddr: 0x100008510, symSize: 0x120 }
  - { offsetInCU: 0x1F0FB, offset: 0x1F0FB, size: 0x8, addend: 0x0, symName: __ZNSt3__16__treeINS_12__value_typeINS_12basic_stringIcNS_11char_traitsIcEENS_9allocatorIcEEEEiEENS_19__map_value_compareIS7_S8_NS_4lessIS7_EELb1EEENS5_IS8_EEE16__insert_node_atEPNS_15__tree_end_nodeIPNS_16__tree_node_baseIPvEEEERSJ_SJ_, symObjAddr: 0x4600, symBinAddr: 0x100008630, symSize: 0xCC }
  - { offsetInCU: 0x1F150, offset: 0x1F150, size: 0x8, addend: 0x0, symName: __ZNKSt3__110unique_ptrINS_11__tree_nodeINS_12__value_typeINS_12basic_stringIcNS_11char_traitsIcEENS_9allocatorIcEEEEiEEPvEENS_22__tree_node_destructorINS6_ISB_EEEEE3getB8ue170006Ev, symObjAddr: 0x46CC, symBinAddr: 0x1000086FC, symSize: 0x28 }
  - { offsetInCU: 0x1F176, offset: 0x1F176, size: 0x8, addend: 0x0, symName: __ZNSt3__110unique_ptrINS_11__tree_nodeINS_12__value_typeINS_12basic_stringIcNS_11char_traitsIcEENS_9allocatorIcEEEEiEEPvEENS_22__tree_node_destructorINS6_ISB_EEEEE7releaseB8ue170006Ev, symObjAddr: 0x46F4, symBinAddr: 0x100008724, symSize: 0x44 }
  - { offsetInCU: 0x1F1AB, offset: 0x1F1AB, size: 0x8, addend: 0x0, symName: __ZNSt3__110unique_ptrINS_11__tree_nodeINS_12__value_typeINS_12basic_stringIcNS_11char_traitsIcEENS_9allocatorIcEEEEiEEPvEENS_22__tree_node_destructorINS6_ISB_EEEEED1B8ue170006Ev, symObjAddr: 0x4738, symBinAddr: 0x100008768, symSize: 0x2C }
  - { offsetInCU: 0x1F1D5, offset: 0x1F1D5, size: 0x8, addend: 0x0, symName: __ZNSt3__115__tree_iteratorINS_12__value_typeINS_12basic_stringIcNS_11char_traitsIcEENS_9allocatorIcEEEEiEEPNS_11__tree_nodeIS8_PvEElEC1B8ue170006ESC_, symObjAddr: 0x4764, symBinAddr: 0x100008794, symSize: 0x34 }
  - { offsetInCU: 0x1F214, offset: 0x1F214, size: 0x8, addend: 0x0, symName: __ZNSt3__14pairINS_15__tree_iteratorINS_12__value_typeINS_12basic_stringIcNS_11char_traitsIcEENS_9allocatorIcEEEEiEEPNS_11__tree_nodeIS9_PvEElEEbEC1B8ue170006ISE_RbLSB_0EEEOT_OT0_, symObjAddr: 0x4798, symBinAddr: 0x1000087C8, symSize: 0x3C }
  - { offsetInCU: 0x1F272, offset: 0x1F272, size: 0x8, addend: 0x0, symName: __ZNKSt3__16__treeINS_12__value_typeINS_12basic_stringIcNS_11char_traitsIcEENS_9allocatorIcEEEEiEENS_19__map_value_compareIS7_S8_NS_4lessIS7_EELb1EEENS5_IS8_EEE10__root_ptrB8ue170006Ev, symObjAddr: 0x47D4, symBinAddr: 0x100008804, symSize: 0x24 }
  - { offsetInCU: 0x1F298, offset: 0x1F298, size: 0x8, addend: 0x0, symName: __ZNSt3__16__treeINS_12__value_typeINS_12basic_stringIcNS_11char_traitsIcEENS_9allocatorIcEEEEiEENS_19__map_value_compareIS7_S8_NS_4lessIS7_EELb1EEENS5_IS8_EEE10value_compB8ue170006Ev, symObjAddr: 0x47F8, symBinAddr: 0x100008828, symSize: 0x28 }
  - { offsetInCU: 0x1F2BE, offset: 0x1F2BE, size: 0x8, addend: 0x0, symName: __ZNKSt3__119__map_value_compareINS_12basic_stringIcNS_11char_traitsIcEENS_9allocatorIcEEEENS_12__value_typeIS6_iEENS_4lessIS6_EELb1EEclB8ue170006ERKS6_RKS8_, symObjAddr: 0x4820, symBinAddr: 0x100008850, symSize: 0x50 }
  - { offsetInCU: 0x1F302, offset: 0x1F302, size: 0x8, addend: 0x0, symName: __ZNKSt3__119__map_value_compareINS_12basic_stringIcNS_11char_traitsIcEENS_9allocatorIcEEEENS_12__value_typeIS6_iEENS_4lessIS6_EELb1EEclB8ue170006ERKS8_RKS6_, symObjAddr: 0x4870, symBinAddr: 0x1000088A0, symSize: 0x48 }
  - { offsetInCU: 0x1F346, offset: 0x1F346, size: 0x8, addend: 0x0, symName: __ZNSt3__117__compressed_pairImNS_19__map_value_compareINS_12basic_stringIcNS_11char_traitsIcEENS_9allocatorIcEEEENS_12__value_typeIS7_iEENS_4lessIS7_EELb1EEEE6secondB8ue170006Ev, symObjAddr: 0x48B8, symBinAddr: 0x1000088E8, symSize: 0x24 }
  - { offsetInCU: 0x1F36C, offset: 0x1F36C, size: 0x8, addend: 0x0, symName: __ZNSt3__122__compressed_pair_elemINS_19__map_value_compareINS_12basic_stringIcNS_11char_traitsIcEENS_9allocatorIcEEEENS_12__value_typeIS7_iEENS_4lessIS7_EELb1EEELi1ELb1EE5__getB8ue170006Ev, symObjAddr: 0x48DC, symBinAddr: 0x10000890C, symSize: 0x14 }
  - { offsetInCU: 0x1F392, offset: 0x1F392, size: 0x8, addend: 0x0, symName: __ZNKSt3__14lessINS_12basic_stringIcNS_11char_traitsIcEENS_9allocatorIcEEEEEclB8ue170006ERKS6_S9_, symObjAddr: 0x48F0, symBinAddr: 0x100008920, symSize: 0x50 }
  - { offsetInCU: 0x1F3D6, offset: 0x1F3D6, size: 0x8, addend: 0x0, symName: __ZNKSt3__112__value_typeINS_12basic_stringIcNS_11char_traitsIcEENS_9allocatorIcEEEEiE11__get_valueB8ue170006Ev, symObjAddr: 0x4940, symBinAddr: 0x100008970, symSize: 0x24 }
  - { offsetInCU: 0x1F40C, offset: 0x1F40C, size: 0x8, addend: 0x0, symName: __ZNSt3__120_CmpUnspecifiedParamC1B8ue170006EMS0_i, symObjAddr: 0x49E4, symBinAddr: 0x100008A14, symSize: 0x34 }
  - { offsetInCU: 0x1F440, offset: 0x1F440, size: 0x8, addend: 0x0, symName: __ZNKSt3__112basic_stringIcNS_11char_traitsIcEENS_9allocatorIcEEEcvNS_17basic_string_viewIcS2_EEB8ue170006Ev, symObjAddr: 0x4A94, symBinAddr: 0x100008AC4, symSize: 0x50 }
  - { offsetInCU: 0x1F466, offset: 0x1F466, size: 0x8, addend: 0x0, symName: __ZNKSt3__117basic_string_viewIcNS_11char_traitsIcEEE7compareES3_, symObjAddr: 0x4AE4, symBinAddr: 0x100008B14, symSize: 0x13C }
  - { offsetInCU: 0x1F4B9, offset: 0x1F4B9, size: 0x8, addend: 0x0, symName: __ZNKSt3__117basic_string_viewIcNS_11char_traitsIcEEE4sizeB8ue170006Ev, symObjAddr: 0x4C4C, symBinAddr: 0x100008C7C, symSize: 0x18 }
  - { offsetInCU: 0x1F4DF, offset: 0x1F4DF, size: 0x8, addend: 0x0, symName: __ZNSt3__111char_traitsIcE7compareB8ue170006EPKcS3_m, symObjAddr: 0x4C64, symBinAddr: 0x100008C94, symSize: 0x34 }
  - { offsetInCU: 0x1F51E, offset: 0x1F51E, size: 0x8, addend: 0x0, symName: __ZNKSt3__117basic_string_viewIcNS_11char_traitsIcEEE4dataB8ue170006Ev, symObjAddr: 0x4C98, symBinAddr: 0x100008CC8, symSize: 0x18 }
  - { offsetInCU: 0x1F550, offset: 0x1F550, size: 0x8, addend: 0x0, symName: __ZNKSt3__16__lessIvvEclB8ue170006ImmEEbRKT_RKT0_, symObjAddr: 0x4D04, symBinAddr: 0x100008D34, symSize: 0x34 }
  - { offsetInCU: 0x1F5A4, offset: 0x1F5A4, size: 0x8, addend: 0x0, symName: __ZNSt3__117basic_string_viewIcNS_11char_traitsIcEEEC1B8ue170006EPKcm, symObjAddr: 0x4D38, symBinAddr: 0x100008D68, symSize: 0x3C }
  - { offsetInCU: 0x1F5EC, offset: 0x1F5EC, size: 0x8, addend: 0x0, symName: __ZNSt3__117basic_string_viewIcNS_11char_traitsIcEEEC2B8ue170006EPKcm, symObjAddr: 0x4D74, symBinAddr: 0x100008DA4, symSize: 0x2C }
  - { offsetInCU: 0x1F634, offset: 0x1F634, size: 0x8, addend: 0x0, symName: __ZNSt3__120_CmpUnspecifiedParamC2B8ue170006EMS0_i, symObjAddr: 0x4DA0, symBinAddr: 0x100008DD0, symSize: 0x18 }
  - { offsetInCU: 0x1F668, offset: 0x1F668, size: 0x8, addend: 0x0, symName: __ZNSt3__116allocator_traitsINS_9allocatorINS_11__tree_nodeINS_12__value_typeINS_12basic_stringIcNS_11char_traitsIcEENS1_IcEEEEiEEPvEEEEE8allocateB8ue170006ERSC_m, symObjAddr: 0x4DF0, symBinAddr: 0x100008E20, symSize: 0x2C }
  - { offsetInCU: 0x1F69B, offset: 0x1F69B, size: 0x8, addend: 0x0, symName: __ZNSt3__122__tree_node_destructorINS_9allocatorINS_11__tree_nodeINS_12__value_typeINS_12basic_stringIcNS_11char_traitsIcEENS1_IcEEEEiEEPvEEEEEC1B8ue170006ERSC_b, symObjAddr: 0x4E1C, symBinAddr: 0x100008E4C, symSize: 0x48 }
  - { offsetInCU: 0x1F6E9, offset: 0x1F6E9, size: 0x8, addend: 0x0, symName: __ZNSt3__110unique_ptrINS_11__tree_nodeINS_12__value_typeINS_12basic_stringIcNS_11char_traitsIcEENS_9allocatorIcEEEEiEEPvEENS_22__tree_node_destructorINS6_ISB_EEEEEC1B8ue170006ILb1EvEEPSB_NS_16__dependent_typeINS_27__unique_ptr_deleter_sfinaeISE_EEXT_EE20__good_rval_ref_typeE, symObjAddr: 0x4E64, symBinAddr: 0x100008E94, symSize: 0x3C }
  - { offsetInCU: 0x1F73A, offset: 0x1F73A, size: 0x8, addend: 0x0, symName: __ZNSt3__116allocator_traitsINS_9allocatorINS_11__tree_nodeINS_12__value_typeINS_12basic_stringIcNS_11char_traitsIcEENS1_IcEEEEiEEPvEEEEE9constructB8ue170006INS_4pairIKS8_iEEJRKNS_21piecewise_construct_tENS_5tupleIJRSG_EEENSL_IJEEEEvvEEvRSC_PT_DpOT0_, symObjAddr: 0x4EA0, symBinAddr: 0x100008ED0, symSize: 0x40 }
  - { offsetInCU: 0x1F7B6, offset: 0x1F7B6, size: 0x8, addend: 0x0, symName: __ZNKSt3__110unique_ptrINS_11__tree_nodeINS_12__value_typeINS_12basic_stringIcNS_11char_traitsIcEENS_9allocatorIcEEEEiEEPvEENS_22__tree_node_destructorINS6_ISB_EEEEEptB8ue170006Ev, symObjAddr: 0x4EE0, symBinAddr: 0x100008F10, symSize: 0x28 }
  - { offsetInCU: 0x1F7DC, offset: 0x1F7DC, size: 0x8, addend: 0x0, symName: __ZNSt3__110unique_ptrINS_11__tree_nodeINS_12__value_typeINS_12basic_stringIcNS_11char_traitsIcEENS_9allocatorIcEEEEiEEPvEENS_22__tree_node_destructorINS6_ISB_EEEEE11get_deleterB8ue170006Ev, symObjAddr: 0x4F08, symBinAddr: 0x100008F38, symSize: 0x24 }
  - { offsetInCU: 0x1F802, offset: 0x1F802, size: 0x8, addend: 0x0, symName: __ZNSt3__19allocatorINS_11__tree_nodeINS_12__value_typeINS_12basic_stringIcNS_11char_traitsIcEENS0_IcEEEEiEEPvEEE8allocateB8ue170006Em, symObjAddr: 0x4F2C, symBinAddr: 0x100008F5C, symSize: 0x58 }
  - { offsetInCU: 0x1F842, offset: 0x1F842, size: 0x8, addend: 0x0, symName: __ZNSt3__116allocator_traitsINS_9allocatorINS_11__tree_nodeINS_12__value_typeINS_12basic_stringIcNS_11char_traitsIcEENS1_IcEEEEiEEPvEEEEE8max_sizeB8ue170006ISC_vvEEmRKSC_, symObjAddr: 0x4F84, symBinAddr: 0x100008FB4, symSize: 0x28 }
  - { offsetInCU: 0x1F86D, offset: 0x1F86D, size: 0x8, addend: 0x0, symName: __ZNSt3__122__tree_node_destructorINS_9allocatorINS_11__tree_nodeINS_12__value_typeINS_12basic_stringIcNS_11char_traitsIcEENS1_IcEEEEiEEPvEEEEEC2B8ue170006ERSC_b, symObjAddr: 0x4FAC, symBinAddr: 0x100008FDC, symSize: 0x38 }
  - { offsetInCU: 0x1F8B5, offset: 0x1F8B5, size: 0x8, addend: 0x0, symName: __ZNSt3__110unique_ptrINS_11__tree_nodeINS_12__value_typeINS_12basic_stringIcNS_11char_traitsIcEENS_9allocatorIcEEEEiEEPvEENS_22__tree_node_destructorINS6_ISB_EEEEEC2B8ue170006ILb1EvEEPSB_NS_16__dependent_typeINS_27__unique_ptr_deleter_sfinaeISE_EEXT_EE20__good_rval_ref_typeE, symObjAddr: 0x4FE4, symBinAddr: 0x100009014, symSize: 0x48 }
  - { offsetInCU: 0x1F906, offset: 0x1F906, size: 0x8, addend: 0x0, symName: __ZNSt3__117__compressed_pairIPNS_11__tree_nodeINS_12__value_typeINS_12basic_stringIcNS_11char_traitsIcEENS_9allocatorIcEEEEiEEPvEENS_22__tree_node_destructorINS6_ISB_EEEEEC1B8ue170006IRSC_SF_EEOT_OT0_, symObjAddr: 0x502C, symBinAddr: 0x10000905C, symSize: 0x3C }
  - { offsetInCU: 0x1F95E, offset: 0x1F95E, size: 0x8, addend: 0x0, symName: __ZNSt3__117__compressed_pairIPNS_11__tree_nodeINS_12__value_typeINS_12basic_stringIcNS_11char_traitsIcEENS_9allocatorIcEEEEiEEPvEENS_22__tree_node_destructorINS6_ISB_EEEEEC2B8ue170006IRSC_SF_EEOT_OT0_, symObjAddr: 0x5068, symBinAddr: 0x100009098, symSize: 0x48 }
  - { offsetInCU: 0x1F9B6, offset: 0x1F9B6, size: 0x8, addend: 0x0, symName: __ZNSt3__122__compressed_pair_elemIPNS_11__tree_nodeINS_12__value_typeINS_12basic_stringIcNS_11char_traitsIcEENS_9allocatorIcEEEEiEEPvEELi0ELb0EEC2B8ue170006IRSC_vEEOT_, symObjAddr: 0x50B0, symBinAddr: 0x1000090E0, symSize: 0x24 }
  - { offsetInCU: 0x1F9F8, offset: 0x1F9F8, size: 0x8, addend: 0x0, symName: __ZNSt3__122__compressed_pair_elemINS_22__tree_node_destructorINS_9allocatorINS_11__tree_nodeINS_12__value_typeINS_12basic_stringIcNS_11char_traitsIcEENS2_IcEEEEiEEPvEEEEEELi1ELb0EEC2B8ue170006ISE_vEEOT_, symObjAddr: 0x50D4, symBinAddr: 0x100009104, symSize: 0x24 }
  - { offsetInCU: 0x1FA3A, offset: 0x1FA3A, size: 0x8, addend: 0x0, symName: __ZNSt3__14pairIKNS_12basic_stringIcNS_11char_traitsIcEENS_9allocatorIcEEEEiEC1B8ue170006IJRS7_EJEEENS_21piecewise_construct_tENS_5tupleIJDpT_EEENSC_IJDpT0_EEE, symObjAddr: 0x5148, symBinAddr: 0x100009178, symSize: 0x3C }
  - { offsetInCU: 0x1FAA1, offset: 0x1FAA1, size: 0x8, addend: 0x0, symName: __ZNSt3__14pairIKNS_12basic_stringIcNS_11char_traitsIcEENS_9allocatorIcEEEEiEC1B8ue170006IJRS7_EJEJLm0EEJEEENS_21piecewise_construct_tERNS_5tupleIJDpT_EEERNSC_IJDpT0_EEENS_15__tuple_indicesIJXspT1_EEEENSL_IJXspT2_EEEE, symObjAddr: 0x5184, symBinAddr: 0x1000091B4, symSize: 0x3C }
  - { offsetInCU: 0x1FB2E, offset: 0x1FB2E, size: 0x8, addend: 0x0, symName: __ZNSt3__14pairIKNS_12basic_stringIcNS_11char_traitsIcEENS_9allocatorIcEEEEiEC2B8ue170006IJRS7_EJEJLm0EEJEEENS_21piecewise_construct_tERNS_5tupleIJDpT_EEERNSC_IJDpT0_EEENS_15__tuple_indicesIJXspT1_EEEENSL_IJXspT2_EEEE, symObjAddr: 0x51C0, symBinAddr: 0x1000091F0, symSize: 0x48 }
  - { offsetInCU: 0x1FBBB, offset: 0x1FBBB, size: 0x8, addend: 0x0, symName: __ZNSt3__112__tuple_leafILm0ERKNS_12basic_stringIcNS_11char_traitsIcEENS_9allocatorIcEEEELb0EE3getB8ue170006Ev, symObjAddr: 0x522C, symBinAddr: 0x10000925C, symSize: 0x18 }
  - { offsetInCU: 0x1FBE1, offset: 0x1FBE1, size: 0x8, addend: 0x0, symName: __ZNKSt3__117__compressed_pairIPNS_11__tree_nodeINS_12__value_typeINS_12basic_stringIcNS_11char_traitsIcEENS_9allocatorIcEEEEiEEPvEENS_22__tree_node_destructorINS6_ISB_EEEEE5firstB8ue170006Ev, symObjAddr: 0x5244, symBinAddr: 0x100009274, symSize: 0x24 }
  - { offsetInCU: 0x1FC07, offset: 0x1FC07, size: 0x8, addend: 0x0, symName: __ZNKSt3__122__compressed_pair_elemIPNS_11__tree_nodeINS_12__value_typeINS_12basic_stringIcNS_11char_traitsIcEENS_9allocatorIcEEEEiEEPvEELi0ELb0EE5__getB8ue170006Ev, symObjAddr: 0x5268, symBinAddr: 0x100009298, symSize: 0x14 }
  - { offsetInCU: 0x1FC2D, offset: 0x1FC2D, size: 0x8, addend: 0x0, symName: __ZNSt3__117__compressed_pairIPNS_11__tree_nodeINS_12__value_typeINS_12basic_stringIcNS_11char_traitsIcEENS_9allocatorIcEEEEiEEPvEENS_22__tree_node_destructorINS6_ISB_EEEEE6secondB8ue170006Ev, symObjAddr: 0x527C, symBinAddr: 0x1000092AC, symSize: 0x28 }
  - { offsetInCU: 0x1FC53, offset: 0x1FC53, size: 0x8, addend: 0x0, symName: __ZNSt3__122__compressed_pair_elemINS_22__tree_node_destructorINS_9allocatorINS_11__tree_nodeINS_12__value_typeINS_12basic_stringIcNS_11char_traitsIcEENS2_IcEEEEiEEPvEEEEEELi1ELb0EE5__getB8ue170006Ev, symObjAddr: 0x52A4, symBinAddr: 0x1000092D4, symSize: 0x14 }
  - { offsetInCU: 0x1FC79, offset: 0x1FC79, size: 0x8, addend: 0x0, symName: __ZNSt3__16__treeINS_12__value_typeINS_12basic_stringIcNS_11char_traitsIcEENS_9allocatorIcEEEEiEENS_19__map_value_compareIS7_S8_NS_4lessIS7_EELb1EEENS5_IS8_EEE4sizeB8ue170006Ev, symObjAddr: 0x55E4, symBinAddr: 0x100009614, symSize: 0x28 }
  - { offsetInCU: 0x1FC9F, offset: 0x1FC9F, size: 0x8, addend: 0x0, symName: __ZNKSt3__116__tree_node_baseIPvE15__parent_unsafeB8ue170006Ev, symObjAddr: 0x560C, symBinAddr: 0x10000963C, symSize: 0x18 }
  - { offsetInCU: 0x1FCC5, offset: 0x1FCC5, size: 0x8, addend: 0x0, symName: __ZNSt3__116__tree_node_baseIPvE12__set_parentB8ue170006EPS2_, symObjAddr: 0x57F4, symBinAddr: 0x100009824, symSize: 0x20 }
  - { offsetInCU: 0x1FCFA, offset: 0x1FCFA, size: 0x8, addend: 0x0, symName: __ZNSt3__117__compressed_pairImNS_19__map_value_compareINS_12basic_stringIcNS_11char_traitsIcEENS_9allocatorIcEEEENS_12__value_typeIS7_iEENS_4lessIS7_EELb1EEEE5firstB8ue170006Ev, symObjAddr: 0x5814, symBinAddr: 0x100009844, symSize: 0x24 }
  - { offsetInCU: 0x1FD20, offset: 0x1FD20, size: 0x8, addend: 0x0, symName: __ZNSt3__122__compressed_pair_elemImLi0ELb0EE5__getB8ue170006Ev, symObjAddr: 0x5838, symBinAddr: 0x100009868, symSize: 0x14 }
  - { offsetInCU: 0x1FD46, offset: 0x1FD46, size: 0x8, addend: 0x0, symName: __ZNSt3__117__compressed_pairIPNS_11__tree_nodeINS_12__value_typeINS_12basic_stringIcNS_11char_traitsIcEENS_9allocatorIcEEEEiEEPvEENS_22__tree_node_destructorINS6_ISB_EEEEE5firstB8ue170006Ev, symObjAddr: 0x584C, symBinAddr: 0x10000987C, symSize: 0x24 }
  - { offsetInCU: 0x1FD6C, offset: 0x1FD6C, size: 0x8, addend: 0x0, symName: __ZNSt3__122__compressed_pair_elemIPNS_11__tree_nodeINS_12__value_typeINS_12basic_stringIcNS_11char_traitsIcEENS_9allocatorIcEEEEiEEPvEELi0ELb0EE5__getB8ue170006Ev, symObjAddr: 0x5870, symBinAddr: 0x1000098A0, symSize: 0x14 }
  - { offsetInCU: 0x1FD92, offset: 0x1FD92, size: 0x8, addend: 0x0, symName: __ZNSt3__110unique_ptrINS_11__tree_nodeINS_12__value_typeINS_12basic_stringIcNS_11char_traitsIcEENS_9allocatorIcEEEEiEEPvEENS_22__tree_node_destructorINS6_ISB_EEEEED2B8ue170006Ev, symObjAddr: 0x5884, symBinAddr: 0x1000098B4, symSize: 0x30 }
  - { offsetInCU: 0x1FDBC, offset: 0x1FDBC, size: 0x8, addend: 0x0, symName: __ZNSt3__110unique_ptrINS_11__tree_nodeINS_12__value_typeINS_12basic_stringIcNS_11char_traitsIcEENS_9allocatorIcEEEEiEEPvEENS_22__tree_node_destructorINS6_ISB_EEEEE5resetB8ue170006EPSB_, symObjAddr: 0x58B4, symBinAddr: 0x1000098E4, symSize: 0x78 }
  - { offsetInCU: 0x1FE00, offset: 0x1FE00, size: 0x8, addend: 0x0, symName: __ZNSt3__122__tree_node_destructorINS_9allocatorINS_11__tree_nodeINS_12__value_typeINS_12basic_stringIcNS_11char_traitsIcEENS1_IcEEEEiEEPvEEEEEclB8ue170006EPSB_, symObjAddr: 0x592C, symBinAddr: 0x10000995C, symSize: 0x98 }
  - { offsetInCU: 0x1FE35, offset: 0x1FE35, size: 0x8, addend: 0x0, symName: __ZNSt3__115__tree_iteratorINS_12__value_typeINS_12basic_stringIcNS_11char_traitsIcEENS_9allocatorIcEEEEiEEPNS_11__tree_nodeIS8_PvEElEC2B8ue170006ESC_, symObjAddr: 0x59C4, symBinAddr: 0x1000099F4, symSize: 0x20 }
  - { offsetInCU: 0x1FE6E, offset: 0x1FE6E, size: 0x8, addend: 0x0, symName: __ZNSt3__14pairINS_15__tree_iteratorINS_12__value_typeINS_12basic_stringIcNS_11char_traitsIcEENS_9allocatorIcEEEEiEEPNS_11__tree_nodeIS9_PvEElEEbEC2B8ue170006ISE_RbLSB_0EEEOT_OT0_, symObjAddr: 0x59E4, symBinAddr: 0x100009A14, symSize: 0x38 }
  - { offsetInCU: 0x1FECC, offset: 0x1FECC, size: 0x8, addend: 0x0, symName: __ZNSt3__15tupleIJRKNS_12basic_stringIcNS_11char_traitsIcEENS_9allocatorIcEEEEEEC1B8ue170006INS_4_AndELi0EEES8_, symObjAddr: 0x5A1C, symBinAddr: 0x100009A4C, symSize: 0x34 }
  - { offsetInCU: 0x1FF14, offset: 0x1FF14, size: 0x8, addend: 0x0, symName: __ZNSt3__15tupleIJRKNS_12basic_stringIcNS_11char_traitsIcEENS_9allocatorIcEEEEEEC2B8ue170006INS_4_AndELi0EEES8_, symObjAddr: 0x5A50, symBinAddr: 0x100009A80, symSize: 0x34 }
  - { offsetInCU: 0x1FF5C, offset: 0x1FF5C, size: 0x8, addend: 0x0, symName: __ZNSt3__112__tuple_implINS_15__tuple_indicesIJLm0EEEEJRKNS_12basic_stringIcNS_11char_traitsIcEENS_9allocatorIcEEEEEEC1B8ue170006IJLm0EEJSA_EJEJEJSA_EEENS1_IJXspT_EEEENS_13__tuple_typesIJDpT0_EEENS1_IJXspT1_EEEENSE_IJDpT2_EEEDpOT3_, symObjAddr: 0x5A84, symBinAddr: 0x100009AB4, symSize: 0x34 }
  - { offsetInCU: 0x1FFED, offset: 0x1FFED, size: 0x8, addend: 0x0, symName: __ZNSt3__112__tuple_implINS_15__tuple_indicesIJLm0EEEEJRKNS_12basic_stringIcNS_11char_traitsIcEENS_9allocatorIcEEEEEEC2B8ue170006IJLm0EEJSA_EJEJEJSA_EEENS1_IJXspT_EEEENS_13__tuple_typesIJDpT0_EEENS1_IJXspT1_EEEENSE_IJDpT2_EEEDpOT3_, symObjAddr: 0x5AB8, symBinAddr: 0x100009AE8, symSize: 0x34 }
  - { offsetInCU: 0x2007E, offset: 0x2007E, size: 0x8, addend: 0x0, symName: __ZNSt3__112__tuple_leafILm0ERKNS_12basic_stringIcNS_11char_traitsIcEENS_9allocatorIcEEEELb0EEC2B8ue170006IS8_vEEOT_, symObjAddr: 0x5AEC, symBinAddr: 0x100009B1C, symSize: 0x20 }
  - { offsetInCU: 0x200C1, offset: 0x200C1, size: 0x8, addend: 0x0, symName: __ZNSt3__114pointer_traitsIPNS_12__value_typeINS_12basic_stringIcNS_11char_traitsIcEENS_9allocatorIcEEEEiEEE10pointer_toB8ue170006ERS8_, symObjAddr: 0x5B0C, symBinAddr: 0x100009B3C, symSize: 0x14 }
  - { offsetInCU: 0x200E4, offset: 0x200E4, size: 0x8, addend: 0x0, symName: __ZNKSt3__115__tree_iteratorINS_12__value_typeINS_12basic_stringIcNS_11char_traitsIcEENS_9allocatorIcEEEEiEEPNS_11__tree_nodeIS8_PvEElE8__get_npB8ue170006Ev, symObjAddr: 0x5B20, symBinAddr: 0x100009B50, symSize: 0x18 }
  - { offsetInCU: 0x2010A, offset: 0x2010A, size: 0x8, addend: 0x0, symName: __ZNSt3__13mapINS_12basic_stringIcNS_11char_traitsIcEENS_9allocatorIcEEEEdNS_4lessIS6_EENS4_INS_4pairIKS6_dEEEEEC2B8ue170006Ev, symObjAddr: 0x5B38, symBinAddr: 0x100009B68, symSize: 0x40 }
  - { offsetInCU: 0x20134, offset: 0x20134, size: 0x8, addend: 0x0, symName: __ZNSt3__119__map_value_compareINS_12basic_stringIcNS_11char_traitsIcEENS_9allocatorIcEEEENS_12__value_typeIS6_dEENS_4lessIS6_EELb1EEC1B8ue170006ESA_, symObjAddr: 0x5B78, symBinAddr: 0x100009BA8, symSize: 0x2C }
  - { offsetInCU: 0x2016D, offset: 0x2016D, size: 0x8, addend: 0x0, symName: __ZNSt3__16__treeINS_12__value_typeINS_12basic_stringIcNS_11char_traitsIcEENS_9allocatorIcEEEEdEENS_19__map_value_compareIS7_S8_NS_4lessIS7_EELb1EEENS5_IS8_EEEC1ERKSC_, symObjAddr: 0x5BA4, symBinAddr: 0x100009BD4, symSize: 0x34 }
  - { offsetInCU: 0x201A8, offset: 0x201A8, size: 0x8, addend: 0x0, symName: __ZNSt3__119__map_value_compareINS_12basic_stringIcNS_11char_traitsIcEENS_9allocatorIcEEEENS_12__value_typeIS6_dEENS_4lessIS6_EELb1EEC2B8ue170006ESA_, symObjAddr: 0x5BD8, symBinAddr: 0x100009C08, symSize: 0x14 }
  - { offsetInCU: 0x201E1, offset: 0x201E1, size: 0x8, addend: 0x0, symName: __ZNSt3__16__treeINS_12__value_typeINS_12basic_stringIcNS_11char_traitsIcEENS_9allocatorIcEEEEdEENS_19__map_value_compareIS7_S8_NS_4lessIS7_EELb1EEENS5_IS8_EEEC2ERKSC_, symObjAddr: 0x5BEC, symBinAddr: 0x100009C1C, symSize: 0x7C }
  - { offsetInCU: 0x2021C, offset: 0x2021C, size: 0x8, addend: 0x0, symName: __ZNSt3__117__compressed_pairINS_15__tree_end_nodeIPNS_16__tree_node_baseIPvEEEENS_9allocatorINS_11__tree_nodeINS_12__value_typeINS_12basic_stringIcNS_11char_traitsIcEENS7_IcEEEEdEES3_EEEEEC1B8ue170006ILb1EvEEv, symObjAddr: 0x5C68, symBinAddr: 0x100009C98, symSize: 0x2C }
  - { offsetInCU: 0x20251, offset: 0x20251, size: 0x8, addend: 0x0, symName: __ZNSt3__117__compressed_pairImNS_19__map_value_compareINS_12basic_stringIcNS_11char_traitsIcEENS_9allocatorIcEEEENS_12__value_typeIS7_dEENS_4lessIS7_EELb1EEEEC1B8ue170006IiRKSC_EEOT_OT0_, symObjAddr: 0x5C94, symBinAddr: 0x100009CC4, symSize: 0x3C }
  - { offsetInCU: 0x202A9, offset: 0x202A9, size: 0x8, addend: 0x0, symName: __ZNSt3__16__treeINS_12__value_typeINS_12basic_stringIcNS_11char_traitsIcEENS_9allocatorIcEEEEdEENS_19__map_value_compareIS7_S8_NS_4lessIS7_EELb1EEENS5_IS8_EEE10__end_nodeB8ue170006Ev, symObjAddr: 0x5CD0, symBinAddr: 0x100009D00, symSize: 0x2C }
  - { offsetInCU: 0x202CF, offset: 0x202CF, size: 0x8, addend: 0x0, symName: __ZNSt3__16__treeINS_12__value_typeINS_12basic_stringIcNS_11char_traitsIcEENS_9allocatorIcEEEEdEENS_19__map_value_compareIS7_S8_NS_4lessIS7_EELb1EEENS5_IS8_EEE12__begin_nodeB8ue170006Ev, symObjAddr: 0x5CFC, symBinAddr: 0x100009D2C, symSize: 0x14 }
  - { offsetInCU: 0x202F5, offset: 0x202F5, size: 0x8, addend: 0x0, symName: __ZNSt3__117__compressed_pairINS_15__tree_end_nodeIPNS_16__tree_node_baseIPvEEEENS_9allocatorINS_11__tree_nodeINS_12__value_typeINS_12basic_stringIcNS_11char_traitsIcEENS7_IcEEEEdEES3_EEEEEC2B8ue170006ILb1EvEEv, symObjAddr: 0x5D10, symBinAddr: 0x100009D40, symSize: 0x34 }
  - { offsetInCU: 0x2032A, offset: 0x2032A, size: 0x8, addend: 0x0, symName: __ZNSt3__122__compressed_pair_elemINS_9allocatorINS_11__tree_nodeINS_12__value_typeINS_12basic_stringIcNS_11char_traitsIcEENS1_IcEEEEdEEPvEEEELi1ELb1EEC2B8ue170006ENS_16__value_init_tagE, symObjAddr: 0x5D44, symBinAddr: 0x100009D74, symSize: 0x2C }
  - { offsetInCU: 0x2035E, offset: 0x2035E, size: 0x8, addend: 0x0, symName: __ZNSt3__19allocatorINS_11__tree_nodeINS_12__value_typeINS_12basic_stringIcNS_11char_traitsIcEENS0_IcEEEEdEEPvEEEC2B8ue170006Ev, symObjAddr: 0x5D70, symBinAddr: 0x100009DA0, symSize: 0x2C }
  - { offsetInCU: 0x20388, offset: 0x20388, size: 0x8, addend: 0x0, symName: __ZNSt3__116__non_trivial_ifILb1ENS_9allocatorINS_11__tree_nodeINS_12__value_typeINS_12basic_stringIcNS_11char_traitsIcEENS1_IcEEEEdEEPvEEEEEC2B8ue170006Ev, symObjAddr: 0x5D9C, symBinAddr: 0x100009DCC, symSize: 0x14 }
  - { offsetInCU: 0x203B2, offset: 0x203B2, size: 0x8, addend: 0x0, symName: __ZNSt3__117__compressed_pairImNS_19__map_value_compareINS_12basic_stringIcNS_11char_traitsIcEENS_9allocatorIcEEEENS_12__value_typeIS7_dEENS_4lessIS7_EELb1EEEEC2B8ue170006IiRKSC_EEOT_OT0_, symObjAddr: 0x5DB0, symBinAddr: 0x100009DE0, symSize: 0x44 }
  - { offsetInCU: 0x2040A, offset: 0x2040A, size: 0x8, addend: 0x0, symName: __ZNSt3__122__compressed_pair_elemINS_19__map_value_compareINS_12basic_stringIcNS_11char_traitsIcEENS_9allocatorIcEEEENS_12__value_typeIS7_dEENS_4lessIS7_EELb1EEELi1ELb1EEC2B8ue170006IRKSC_vEEOT_, symObjAddr: 0x5DF4, symBinAddr: 0x100009E24, symSize: 0x18 }
  - { offsetInCU: 0x2044C, offset: 0x2044C, size: 0x8, addend: 0x0, symName: __ZNSt3__117__compressed_pairINS_15__tree_end_nodeIPNS_16__tree_node_baseIPvEEEENS_9allocatorINS_11__tree_nodeINS_12__value_typeINS_12basic_stringIcNS_11char_traitsIcEENS7_IcEEEEdEES3_EEEEE5firstB8ue170006Ev, symObjAddr: 0x5E0C, symBinAddr: 0x100009E3C, symSize: 0x24 }
  - { offsetInCU: 0x20472, offset: 0x20472, size: 0x8, addend: 0x0, symName: __ZNSt3__13mapINS_12basic_stringIcNS_11char_traitsIcEENS_9allocatorIcEEEEdNS_4lessIS6_EENS4_INS_4pairIKS6_dEEEEED2B8ue170006Ev, symObjAddr: 0x5E30, symBinAddr: 0x100009E60, symSize: 0x2C }
  - { offsetInCU: 0x2049C, offset: 0x2049C, size: 0x8, addend: 0x0, symName: __ZNSt3__16__treeINS_12__value_typeINS_12basic_stringIcNS_11char_traitsIcEENS_9allocatorIcEEEEdEENS_19__map_value_compareIS7_S8_NS_4lessIS7_EELb1EEENS5_IS8_EEED1Ev, symObjAddr: 0x5E5C, symBinAddr: 0x100009E8C, symSize: 0x2C }
  - { offsetInCU: 0x204C8, offset: 0x204C8, size: 0x8, addend: 0x0, symName: __ZNSt3__16__treeINS_12__value_typeINS_12basic_stringIcNS_11char_traitsIcEENS_9allocatorIcEEEEdEENS_19__map_value_compareIS7_S8_NS_4lessIS7_EELb1EEENS5_IS8_EEED2Ev, symObjAddr: 0x5E88, symBinAddr: 0x100009EB8, symSize: 0x38 }
  - { offsetInCU: 0x204F4, offset: 0x204F4, size: 0x8, addend: 0x0, symName: __ZNSt3__16__treeINS_12__value_typeINS_12basic_stringIcNS_11char_traitsIcEENS_9allocatorIcEEEEdEENS_19__map_value_compareIS7_S8_NS_4lessIS7_EELb1EEENS5_IS8_EEE7destroyEPNS_11__tree_nodeIS8_PvEE, symObjAddr: 0x5EC0, symBinAddr: 0x100009EF0, symSize: 0xAC }
  - { offsetInCU: 0x20540, offset: 0x20540, size: 0x8, addend: 0x0, symName: __ZNKSt3__16__treeINS_12__value_typeINS_12basic_stringIcNS_11char_traitsIcEENS_9allocatorIcEEEEdEENS_19__map_value_compareIS7_S8_NS_4lessIS7_EELb1EEENS5_IS8_EEE6__rootB8ue170006Ev, symObjAddr: 0x5F6C, symBinAddr: 0x100009F9C, symSize: 0x28 }
  - { offsetInCU: 0x20566, offset: 0x20566, size: 0x8, addend: 0x0, symName: __ZNSt3__16__treeINS_12__value_typeINS_12basic_stringIcNS_11char_traitsIcEENS_9allocatorIcEEEEdEENS_19__map_value_compareIS7_S8_NS_4lessIS7_EELb1EEENS5_IS8_EEE12__node_allocB8ue170006Ev, symObjAddr: 0x5F94, symBinAddr: 0x100009FC4, symSize: 0x28 }
  - { offsetInCU: 0x2058C, offset: 0x2058C, size: 0x8, addend: 0x0, symName: __ZNSt3__116allocator_traitsINS_9allocatorINS_11__tree_nodeINS_12__value_typeINS_12basic_stringIcNS_11char_traitsIcEENS1_IcEEEEdEEPvEEEEE7destroyB8ue170006INS_4pairIKS8_dEEvvEEvRSC_PT_, symObjAddr: 0x5FBC, symBinAddr: 0x100009FEC, symSize: 0x28 }
  - { offsetInCU: 0x205C6, offset: 0x205C6, size: 0x8, addend: 0x0, symName: __ZNSt3__122__tree_key_value_typesINS_12__value_typeINS_12basic_stringIcNS_11char_traitsIcEENS_9allocatorIcEEEEdEEE9__get_ptrB8ue170006ERS8_, symObjAddr: 0x5FE4, symBinAddr: 0x10000A014, symSize: 0x24 }
  - { offsetInCU: 0x205EA, offset: 0x205EA, size: 0x8, addend: 0x0, symName: __ZNSt3__116allocator_traitsINS_9allocatorINS_11__tree_nodeINS_12__value_typeINS_12basic_stringIcNS_11char_traitsIcEENS1_IcEEEEdEEPvEEEEE10deallocateB8ue170006ERSC_PSB_m, symObjAddr: 0x6008, symBinAddr: 0x10000A038, symSize: 0x34 }
  - { offsetInCU: 0x2062C, offset: 0x2062C, size: 0x8, addend: 0x0, symName: __ZNSt3__117__compressed_pairINS_15__tree_end_nodeIPNS_16__tree_node_baseIPvEEEENS_9allocatorINS_11__tree_nodeINS_12__value_typeINS_12basic_stringIcNS_11char_traitsIcEENS7_IcEEEEdEES3_EEEEE6secondB8ue170006Ev, symObjAddr: 0x603C, symBinAddr: 0x10000A06C, symSize: 0x24 }
  - { offsetInCU: 0x20652, offset: 0x20652, size: 0x8, addend: 0x0, symName: __ZNSt3__122__compressed_pair_elemINS_9allocatorINS_11__tree_nodeINS_12__value_typeINS_12basic_stringIcNS_11char_traitsIcEENS1_IcEEEEdEEPvEEEELi1ELb1EE5__getB8ue170006Ev, symObjAddr: 0x6060, symBinAddr: 0x10000A090, symSize: 0x14 }
  - { offsetInCU: 0x20678, offset: 0x20678, size: 0x8, addend: 0x0, symName: __ZNSt3__14pairIKNS_12basic_stringIcNS_11char_traitsIcEENS_9allocatorIcEEEEdED1Ev, symObjAddr: 0x60BC, symBinAddr: 0x10000A0EC, symSize: 0x2C }
  - { offsetInCU: 0x206A4, offset: 0x206A4, size: 0x8, addend: 0x0, symName: __ZNSt3__14pairIKNS_12basic_stringIcNS_11char_traitsIcEENS_9allocatorIcEEEEdED2Ev, symObjAddr: 0x60E8, symBinAddr: 0x10000A118, symSize: 0x2C }
  - { offsetInCU: 0x206D0, offset: 0x206D0, size: 0x8, addend: 0x0, symName: __ZNSt3__112__value_typeINS_12basic_stringIcNS_11char_traitsIcEENS_9allocatorIcEEEEdE11__get_valueB8ue170006Ev, symObjAddr: 0x6114, symBinAddr: 0x10000A144, symSize: 0x24 }
  - { offsetInCU: 0x206F6, offset: 0x206F6, size: 0x8, addend: 0x0, symName: __ZNSt3__19allocatorINS_11__tree_nodeINS_12__value_typeINS_12basic_stringIcNS_11char_traitsIcEENS0_IcEEEEdEEPvEEE10deallocateB8ue170006EPSA_m, symObjAddr: 0x6170, symBinAddr: 0x10000A1A0, symSize: 0x40 }
  - { offsetInCU: 0x20738, offset: 0x20738, size: 0x8, addend: 0x0, symName: __ZNKSt3__16__treeINS_12__value_typeINS_12basic_stringIcNS_11char_traitsIcEENS_9allocatorIcEEEEdEENS_19__map_value_compareIS7_S8_NS_4lessIS7_EELb1EEENS5_IS8_EEE10__end_nodeB8ue170006Ev, symObjAddr: 0x61B0, symBinAddr: 0x10000A1E0, symSize: 0x2C }
  - { offsetInCU: 0x2075E, offset: 0x2075E, size: 0x8, addend: 0x0, symName: __ZNKSt3__117__compressed_pairINS_15__tree_end_nodeIPNS_16__tree_node_baseIPvEEEENS_9allocatorINS_11__tree_nodeINS_12__value_typeINS_12basic_stringIcNS_11char_traitsIcEENS7_IcEEEEdEES3_EEEEE5firstB8ue170006Ev, symObjAddr: 0x61DC, symBinAddr: 0x10000A20C, symSize: 0x24 }
  - { offsetInCU: 0x20784, offset: 0x20784, size: 0x8, addend: 0x0, symName: __ZNSt3__16__treeINS_12__value_typeINS_12basic_stringIcNS_11char_traitsIcEENS_9allocatorIcEEEEiEENS_19__map_value_compareIS7_S8_NS_4lessIS7_EELb1EEENS5_IS8_EEE5beginB8ue170006Ev, symObjAddr: 0x6200, symBinAddr: 0x10000A230, symSize: 0x34 }
  - { offsetInCU: 0x207AA, offset: 0x207AA, size: 0x8, addend: 0x0, symName: __ZNSt3__114__map_iteratorINS_15__tree_iteratorINS_12__value_typeINS_12basic_stringIcNS_11char_traitsIcEENS_9allocatorIcEEEEiEEPNS_11__tree_nodeIS9_PvEElEEEC1B8ue170006ESE_, symObjAddr: 0x6234, symBinAddr: 0x10000A264, symSize: 0x34 }
  - { offsetInCU: 0x207E3, offset: 0x207E3, size: 0x8, addend: 0x0, symName: __ZNSt3__115__tree_iteratorINS_12__value_typeINS_12basic_stringIcNS_11char_traitsIcEENS_9allocatorIcEEEEiEEPNS_11__tree_nodeIS8_PvEElEC1B8ue170006EPNS_15__tree_end_nodeIPNS_16__tree_node_baseISA_EEEE, symObjAddr: 0x6268, symBinAddr: 0x10000A298, symSize: 0x34 }
  - { offsetInCU: 0x2081C, offset: 0x2081C, size: 0x8, addend: 0x0, symName: __ZNSt3__115__tree_iteratorINS_12__value_typeINS_12basic_stringIcNS_11char_traitsIcEENS_9allocatorIcEEEEiEEPNS_11__tree_nodeIS8_PvEElEC2B8ue170006EPNS_15__tree_end_nodeIPNS_16__tree_node_baseISA_EEEE, symObjAddr: 0x629C, symBinAddr: 0x10000A2CC, symSize: 0x20 }
  - { offsetInCU: 0x20855, offset: 0x20855, size: 0x8, addend: 0x0, symName: __ZNSt3__114__map_iteratorINS_15__tree_iteratorINS_12__value_typeINS_12basic_stringIcNS_11char_traitsIcEENS_9allocatorIcEEEEiEEPNS_11__tree_nodeIS9_PvEElEEEC2B8ue170006ESE_, symObjAddr: 0x62BC, symBinAddr: 0x10000A2EC, symSize: 0x20 }
  - { offsetInCU: 0x2088E, offset: 0x2088E, size: 0x8, addend: 0x0, symName: __ZNSt3__16__treeINS_12__value_typeINS_12basic_stringIcNS_11char_traitsIcEENS_9allocatorIcEEEEiEENS_19__map_value_compareIS7_S8_NS_4lessIS7_EELb1EEENS5_IS8_EEE3endB8ue170006Ev, symObjAddr: 0x62DC, symBinAddr: 0x10000A30C, symSize: 0x34 }
  - { offsetInCU: 0x208B4, offset: 0x208B4, size: 0x8, addend: 0x0, symName: __ZNSt3__115__tree_iteratorINS_12__value_typeINS_12basic_stringIcNS_11char_traitsIcEENS_9allocatorIcEEEEiEEPNS_11__tree_nodeIS8_PvEElEppB8ue170006Ev, symObjAddr: 0x6374, symBinAddr: 0x10000A3A4, symSize: 0x38 }
  - { offsetInCU: 0x208DA, offset: 0x208DA, size: 0x8, addend: 0x0, symName: __ZNSt3__16__treeINS_12__value_typeINS_12basic_stringIcNS_11char_traitsIcEENS_9allocatorIcEEEEdEENS_19__map_value_compareIS7_S8_NS_4lessIS7_EELb1EEENS5_IS8_EEE25__emplace_unique_key_argsIS7_JRKNS_21piecewise_construct_tENS_5tupleIJRKS7_EEENSJ_IJEEEEEENS_4pairINS_15__tree_iteratorIS8_PNS_11__tree_nodeIS8_PvEElEEbEERKT_DpOT0_, symObjAddr: 0x646C, symBinAddr: 0x10000A49C, symSize: 0x100 }
  - { offsetInCU: 0x209B0, offset: 0x209B0, size: 0x8, addend: 0x0, symName: __ZNKSt3__115__tree_iteratorINS_12__value_typeINS_12basic_stringIcNS_11char_traitsIcEENS_9allocatorIcEEEEdEEPNS_11__tree_nodeIS8_PvEElEptB8ue170006Ev, symObjAddr: 0x656C, symBinAddr: 0x10000A59C, symSize: 0x2C }
  - { offsetInCU: 0x209D6, offset: 0x209D6, size: 0x8, addend: 0x0, symName: __ZNSt3__16__treeINS_12__value_typeINS_12basic_stringIcNS_11char_traitsIcEENS_9allocatorIcEEEEdEENS_19__map_value_compareIS7_S8_NS_4lessIS7_EELb1EEENS5_IS8_EEE12__find_equalIS7_EERPNS_16__tree_node_baseIPvEERPNS_15__tree_end_nodeISJ_EERKT_, symObjAddr: 0x6598, symBinAddr: 0x10000A5C8, symSize: 0x184 }
  - { offsetInCU: 0x20A43, offset: 0x20A43, size: 0x8, addend: 0x0, symName: __ZNSt3__16__treeINS_12__value_typeINS_12basic_stringIcNS_11char_traitsIcEENS_9allocatorIcEEEEdEENS_19__map_value_compareIS7_S8_NS_4lessIS7_EELb1EEENS5_IS8_EEE16__construct_nodeIJRKNS_21piecewise_construct_tENS_5tupleIJRKS7_EEENSJ_IJEEEEEENS_10unique_ptrINS_11__tree_nodeIS8_PvEENS_22__tree_node_destructorINS5_ISR_EEEEEEDpOT_, symObjAddr: 0x671C, symBinAddr: 0x10000A74C, symSize: 0x120 }
  - { offsetInCU: 0x20ACC, offset: 0x20ACC, size: 0x8, addend: 0x0, symName: __ZNSt3__16__treeINS_12__value_typeINS_12basic_stringIcNS_11char_traitsIcEENS_9allocatorIcEEEEdEENS_19__map_value_compareIS7_S8_NS_4lessIS7_EELb1EEENS5_IS8_EEE16__insert_node_atEPNS_15__tree_end_nodeIPNS_16__tree_node_baseIPvEEEERSJ_SJ_, symObjAddr: 0x683C, symBinAddr: 0x10000A86C, symSize: 0xCC }
  - { offsetInCU: 0x20B21, offset: 0x20B21, size: 0x8, addend: 0x0, symName: __ZNKSt3__110unique_ptrINS_11__tree_nodeINS_12__value_typeINS_12basic_stringIcNS_11char_traitsIcEENS_9allocatorIcEEEEdEEPvEENS_22__tree_node_destructorINS6_ISB_EEEEE3getB8ue170006Ev, symObjAddr: 0x6908, symBinAddr: 0x10000A938, symSize: 0x28 }
  - { offsetInCU: 0x20B47, offset: 0x20B47, size: 0x8, addend: 0x0, symName: __ZNSt3__110unique_ptrINS_11__tree_nodeINS_12__value_typeINS_12basic_stringIcNS_11char_traitsIcEENS_9allocatorIcEEEEdEEPvEENS_22__tree_node_destructorINS6_ISB_EEEEE7releaseB8ue170006Ev, symObjAddr: 0x6930, symBinAddr: 0x10000A960, symSize: 0x44 }
  - { offsetInCU: 0x20B7C, offset: 0x20B7C, size: 0x8, addend: 0x0, symName: __ZNSt3__110unique_ptrINS_11__tree_nodeINS_12__value_typeINS_12basic_stringIcNS_11char_traitsIcEENS_9allocatorIcEEEEdEEPvEENS_22__tree_node_destructorINS6_ISB_EEEEED1B8ue170006Ev, symObjAddr: 0x6974, symBinAddr: 0x10000A9A4, symSize: 0x2C }
  - { offsetInCU: 0x20BA6, offset: 0x20BA6, size: 0x8, addend: 0x0, symName: __ZNSt3__115__tree_iteratorINS_12__value_typeINS_12basic_stringIcNS_11char_traitsIcEENS_9allocatorIcEEEEdEEPNS_11__tree_nodeIS8_PvEElEC1B8ue170006ESC_, symObjAddr: 0x69A0, symBinAddr: 0x10000A9D0, symSize: 0x34 }
  - { offsetInCU: 0x20BE5, offset: 0x20BE5, size: 0x8, addend: 0x0, symName: __ZNSt3__14pairINS_15__tree_iteratorINS_12__value_typeINS_12basic_stringIcNS_11char_traitsIcEENS_9allocatorIcEEEEdEEPNS_11__tree_nodeIS9_PvEElEEbEC1B8ue170006ISE_RbLSB_0EEEOT_OT0_, symObjAddr: 0x69D4, symBinAddr: 0x10000AA04, symSize: 0x3C }
  - { offsetInCU: 0x20C43, offset: 0x20C43, size: 0x8, addend: 0x0, symName: __ZNKSt3__16__treeINS_12__value_typeINS_12basic_stringIcNS_11char_traitsIcEENS_9allocatorIcEEEEdEENS_19__map_value_compareIS7_S8_NS_4lessIS7_EELb1EEENS5_IS8_EEE10__root_ptrB8ue170006Ev, symObjAddr: 0x6A10, symBinAddr: 0x10000AA40, symSize: 0x24 }
  - { offsetInCU: 0x20C69, offset: 0x20C69, size: 0x8, addend: 0x0, symName: __ZNSt3__16__treeINS_12__value_typeINS_12basic_stringIcNS_11char_traitsIcEENS_9allocatorIcEEEEdEENS_19__map_value_compareIS7_S8_NS_4lessIS7_EELb1EEENS5_IS8_EEE10value_compB8ue170006Ev, symObjAddr: 0x6A34, symBinAddr: 0x10000AA64, symSize: 0x28 }
  - { offsetInCU: 0x20C8F, offset: 0x20C8F, size: 0x8, addend: 0x0, symName: __ZNKSt3__119__map_value_compareINS_12basic_stringIcNS_11char_traitsIcEENS_9allocatorIcEEEENS_12__value_typeIS6_dEENS_4lessIS6_EELb1EEclB8ue170006ERKS6_RKS8_, symObjAddr: 0x6A5C, symBinAddr: 0x10000AA8C, symSize: 0x50 }
  - { offsetInCU: 0x20CD3, offset: 0x20CD3, size: 0x8, addend: 0x0, symName: __ZNKSt3__119__map_value_compareINS_12basic_stringIcNS_11char_traitsIcEENS_9allocatorIcEEEENS_12__value_typeIS6_dEENS_4lessIS6_EELb1EEclB8ue170006ERKS8_RKS6_, symObjAddr: 0x6AAC, symBinAddr: 0x10000AADC, symSize: 0x48 }
  - { offsetInCU: 0x20D17, offset: 0x20D17, size: 0x8, addend: 0x0, symName: __ZNSt3__117__compressed_pairImNS_19__map_value_compareINS_12basic_stringIcNS_11char_traitsIcEENS_9allocatorIcEEEENS_12__value_typeIS7_dEENS_4lessIS7_EELb1EEEE6secondB8ue170006Ev, symObjAddr: 0x6AF4, symBinAddr: 0x10000AB24, symSize: 0x24 }
  - { offsetInCU: 0x20D3D, offset: 0x20D3D, size: 0x8, addend: 0x0, symName: __ZNSt3__122__compressed_pair_elemINS_19__map_value_compareINS_12basic_stringIcNS_11char_traitsIcEENS_9allocatorIcEEEENS_12__value_typeIS7_dEENS_4lessIS7_EELb1EEELi1ELb1EE5__getB8ue170006Ev, symObjAddr: 0x6B18, symBinAddr: 0x10000AB48, symSize: 0x14 }
  - { offsetInCU: 0x20D63, offset: 0x20D63, size: 0x8, addend: 0x0, symName: __ZNKSt3__112__value_typeINS_12basic_stringIcNS_11char_traitsIcEENS_9allocatorIcEEEEdE11__get_valueB8ue170006Ev, symObjAddr: 0x6B2C, symBinAddr: 0x10000AB5C, symSize: 0x24 }
  - { offsetInCU: 0x20D89, offset: 0x20D89, size: 0x8, addend: 0x0, symName: __ZNSt3__116allocator_traitsINS_9allocatorINS_11__tree_nodeINS_12__value_typeINS_12basic_stringIcNS_11char_traitsIcEENS1_IcEEEEdEEPvEEEEE8allocateB8ue170006ERSC_m, symObjAddr: 0x6B88, symBinAddr: 0x10000ABB8, symSize: 0x2C }
  - { offsetInCU: 0x20DBC, offset: 0x20DBC, size: 0x8, addend: 0x0, symName: __ZNSt3__122__tree_node_destructorINS_9allocatorINS_11__tree_nodeINS_12__value_typeINS_12basic_stringIcNS_11char_traitsIcEENS1_IcEEEEdEEPvEEEEEC1B8ue170006ERSC_b, symObjAddr: 0x6BB4, symBinAddr: 0x10000ABE4, symSize: 0x48 }
  - { offsetInCU: 0x20E0A, offset: 0x20E0A, size: 0x8, addend: 0x0, symName: __ZNSt3__110unique_ptrINS_11__tree_nodeINS_12__value_typeINS_12basic_stringIcNS_11char_traitsIcEENS_9allocatorIcEEEEdEEPvEENS_22__tree_node_destructorINS6_ISB_EEEEEC1B8ue170006ILb1EvEEPSB_NS_16__dependent_typeINS_27__unique_ptr_deleter_sfinaeISE_EEXT_EE20__good_rval_ref_typeE, symObjAddr: 0x6BFC, symBinAddr: 0x10000AC2C, symSize: 0x3C }
  - { offsetInCU: 0x20E5B, offset: 0x20E5B, size: 0x8, addend: 0x0, symName: __ZNSt3__116allocator_traitsINS_9allocatorINS_11__tree_nodeINS_12__value_typeINS_12basic_stringIcNS_11char_traitsIcEENS1_IcEEEEdEEPvEEEEE9constructB8ue170006INS_4pairIKS8_dEEJRKNS_21piecewise_construct_tENS_5tupleIJRSG_EEENSL_IJEEEEvvEEvRSC_PT_DpOT0_, symObjAddr: 0x6C38, symBinAddr: 0x10000AC68, symSize: 0x40 }
  - { offsetInCU: 0x20ED7, offset: 0x20ED7, size: 0x8, addend: 0x0, symName: __ZNKSt3__110unique_ptrINS_11__tree_nodeINS_12__value_typeINS_12basic_stringIcNS_11char_traitsIcEENS_9allocatorIcEEEEdEEPvEENS_22__tree_node_destructorINS6_ISB_EEEEEptB8ue170006Ev, symObjAddr: 0x6C78, symBinAddr: 0x10000ACA8, symSize: 0x28 }
  - { offsetInCU: 0x20EFD, offset: 0x20EFD, size: 0x8, addend: 0x0, symName: __ZNSt3__110unique_ptrINS_11__tree_nodeINS_12__value_typeINS_12basic_stringIcNS_11char_traitsIcEENS_9allocatorIcEEEEdEEPvEENS_22__tree_node_destructorINS6_ISB_EEEEE11get_deleterB8ue170006Ev, symObjAddr: 0x6CA0, symBinAddr: 0x10000ACD0, symSize: 0x24 }
  - { offsetInCU: 0x20F23, offset: 0x20F23, size: 0x8, addend: 0x0, symName: __ZNSt3__19allocatorINS_11__tree_nodeINS_12__value_typeINS_12basic_stringIcNS_11char_traitsIcEENS0_IcEEEEdEEPvEEE8allocateB8ue170006Em, symObjAddr: 0x6CC4, symBinAddr: 0x10000ACF4, symSize: 0x58 }
  - { offsetInCU: 0x20F63, offset: 0x20F63, size: 0x8, addend: 0x0, symName: __ZNSt3__116allocator_traitsINS_9allocatorINS_11__tree_nodeINS_12__value_typeINS_12basic_stringIcNS_11char_traitsIcEENS1_IcEEEEdEEPvEEEEE8max_sizeB8ue170006ISC_vvEEmRKSC_, symObjAddr: 0x6D1C, symBinAddr: 0x10000AD4C, symSize: 0x28 }
  - { offsetInCU: 0x20F8E, offset: 0x20F8E, size: 0x8, addend: 0x0, symName: __ZNSt3__122__tree_node_destructorINS_9allocatorINS_11__tree_nodeINS_12__value_typeINS_12basic_stringIcNS_11char_traitsIcEENS1_IcEEEEdEEPvEEEEEC2B8ue170006ERSC_b, symObjAddr: 0x6D44, symBinAddr: 0x10000AD74, symSize: 0x38 }
  - { offsetInCU: 0x20FD6, offset: 0x20FD6, size: 0x8, addend: 0x0, symName: __ZNSt3__110unique_ptrINS_11__tree_nodeINS_12__value_typeINS_12basic_stringIcNS_11char_traitsIcEENS_9allocatorIcEEEEdEEPvEENS_22__tree_node_destructorINS6_ISB_EEEEEC2B8ue170006ILb1EvEEPSB_NS_16__dependent_typeINS_27__unique_ptr_deleter_sfinaeISE_EEXT_EE20__good_rval_ref_typeE, symObjAddr: 0x6D7C, symBinAddr: 0x10000ADAC, symSize: 0x48 }
  - { offsetInCU: 0x21027, offset: 0x21027, size: 0x8, addend: 0x0, symName: __ZNSt3__117__compressed_pairIPNS_11__tree_nodeINS_12__value_typeINS_12basic_stringIcNS_11char_traitsIcEENS_9allocatorIcEEEEdEEPvEENS_22__tree_node_destructorINS6_ISB_EEEEEC1B8ue170006IRSC_SF_EEOT_OT0_, symObjAddr: 0x6DC4, symBinAddr: 0x10000ADF4, symSize: 0x3C }
  - { offsetInCU: 0x2107F, offset: 0x2107F, size: 0x8, addend: 0x0, symName: __ZNSt3__117__compressed_pairIPNS_11__tree_nodeINS_12__value_typeINS_12basic_stringIcNS_11char_traitsIcEENS_9allocatorIcEEEEdEEPvEENS_22__tree_node_destructorINS6_ISB_EEEEEC2B8ue170006IRSC_SF_EEOT_OT0_, symObjAddr: 0x6E00, symBinAddr: 0x10000AE30, symSize: 0x48 }
  - { offsetInCU: 0x210D7, offset: 0x210D7, size: 0x8, addend: 0x0, symName: __ZNSt3__122__compressed_pair_elemIPNS_11__tree_nodeINS_12__value_typeINS_12basic_stringIcNS_11char_traitsIcEENS_9allocatorIcEEEEdEEPvEELi0ELb0EEC2B8ue170006IRSC_vEEOT_, symObjAddr: 0x6E48, symBinAddr: 0x10000AE78, symSize: 0x24 }
  - { offsetInCU: 0x21119, offset: 0x21119, size: 0x8, addend: 0x0, symName: __ZNSt3__122__compressed_pair_elemINS_22__tree_node_destructorINS_9allocatorINS_11__tree_nodeINS_12__value_typeINS_12basic_stringIcNS_11char_traitsIcEENS2_IcEEEEdEEPvEEEEEELi1ELb0EEC2B8ue170006ISE_vEEOT_, symObjAddr: 0x6E6C, symBinAddr: 0x10000AE9C, symSize: 0x24 }
  - { offsetInCU: 0x2115B, offset: 0x2115B, size: 0x8, addend: 0x0, symName: __ZNSt3__14pairIKNS_12basic_stringIcNS_11char_traitsIcEENS_9allocatorIcEEEEdEC1B8ue170006IJRS7_EJEEENS_21piecewise_construct_tENS_5tupleIJDpT_EEENSC_IJDpT0_EEE, symObjAddr: 0x6EE0, symBinAddr: 0x10000AF10, symSize: 0x3C }
  - { offsetInCU: 0x211C2, offset: 0x211C2, size: 0x8, addend: 0x0, symName: __ZNSt3__14pairIKNS_12basic_stringIcNS_11char_traitsIcEENS_9allocatorIcEEEEdEC1B8ue170006IJRS7_EJEJLm0EEJEEENS_21piecewise_construct_tERNS_5tupleIJDpT_EEERNSC_IJDpT0_EEENS_15__tuple_indicesIJXspT1_EEEENSL_IJXspT2_EEEE, symObjAddr: 0x6F1C, symBinAddr: 0x10000AF4C, symSize: 0x3C }
  - { offsetInCU: 0x2124F, offset: 0x2124F, size: 0x8, addend: 0x0, symName: __ZNSt3__14pairIKNS_12basic_stringIcNS_11char_traitsIcEENS_9allocatorIcEEEEdEC2B8ue170006IJRS7_EJEJLm0EEJEEENS_21piecewise_construct_tERNS_5tupleIJDpT_EEERNSC_IJDpT0_EEENS_15__tuple_indicesIJXspT1_EEEENSL_IJXspT2_EEEE, symObjAddr: 0x6F58, symBinAddr: 0x10000AF88, symSize: 0x4C }
  - { offsetInCU: 0x212DC, offset: 0x212DC, size: 0x8, addend: 0x0, symName: __ZNKSt3__117__compressed_pairIPNS_11__tree_nodeINS_12__value_typeINS_12basic_stringIcNS_11char_traitsIcEENS_9allocatorIcEEEEdEEPvEENS_22__tree_node_destructorINS6_ISB_EEEEE5firstB8ue170006Ev, symObjAddr: 0x6FA4, symBinAddr: 0x10000AFD4, symSize: 0x24 }
  - { offsetInCU: 0x21302, offset: 0x21302, size: 0x8, addend: 0x0, symName: __ZNKSt3__122__compressed_pair_elemIPNS_11__tree_nodeINS_12__value_typeINS_12basic_stringIcNS_11char_traitsIcEENS_9allocatorIcEEEEdEEPvEELi0ELb0EE5__getB8ue170006Ev, symObjAddr: 0x6FC8, symBinAddr: 0x10000AFF8, symSize: 0x14 }
  - { offsetInCU: 0x21328, offset: 0x21328, size: 0x8, addend: 0x0, symName: __ZNSt3__117__compressed_pairIPNS_11__tree_nodeINS_12__value_typeINS_12basic_stringIcNS_11char_traitsIcEENS_9allocatorIcEEEEdEEPvEENS_22__tree_node_destructorINS6_ISB_EEEEE6secondB8ue170006Ev, symObjAddr: 0x6FDC, symBinAddr: 0x10000B00C, symSize: 0x28 }
  - { offsetInCU: 0x2134E, offset: 0x2134E, size: 0x8, addend: 0x0, symName: __ZNSt3__122__compressed_pair_elemINS_22__tree_node_destructorINS_9allocatorINS_11__tree_nodeINS_12__value_typeINS_12basic_stringIcNS_11char_traitsIcEENS2_IcEEEEdEEPvEEEEEELi1ELb0EE5__getB8ue170006Ev, symObjAddr: 0x7004, symBinAddr: 0x10000B034, symSize: 0x14 }
  - { offsetInCU: 0x21374, offset: 0x21374, size: 0x8, addend: 0x0, symName: __ZNSt3__16__treeINS_12__value_typeINS_12basic_stringIcNS_11char_traitsIcEENS_9allocatorIcEEEEdEENS_19__map_value_compareIS7_S8_NS_4lessIS7_EELb1EEENS5_IS8_EEE4sizeB8ue170006Ev, symObjAddr: 0x7018, symBinAddr: 0x10000B048, symSize: 0x28 }
  - { offsetInCU: 0x2139A, offset: 0x2139A, size: 0x8, addend: 0x0, symName: __ZNSt3__117__compressed_pairImNS_19__map_value_compareINS_12basic_stringIcNS_11char_traitsIcEENS_9allocatorIcEEEENS_12__value_typeIS7_dEENS_4lessIS7_EELb1EEEE5firstB8ue170006Ev, symObjAddr: 0x7040, symBinAddr: 0x10000B070, symSize: 0x24 }
  - { offsetInCU: 0x213C0, offset: 0x213C0, size: 0x8, addend: 0x0, symName: __ZNSt3__117__compressed_pairIPNS_11__tree_nodeINS_12__value_typeINS_12basic_stringIcNS_11char_traitsIcEENS_9allocatorIcEEEEdEEPvEENS_22__tree_node_destructorINS6_ISB_EEEEE5firstB8ue170006Ev, symObjAddr: 0x7064, symBinAddr: 0x10000B094, symSize: 0x24 }
  - { offsetInCU: 0x213E6, offset: 0x213E6, size: 0x8, addend: 0x0, symName: __ZNSt3__122__compressed_pair_elemIPNS_11__tree_nodeINS_12__value_typeINS_12basic_stringIcNS_11char_traitsIcEENS_9allocatorIcEEEEdEEPvEELi0ELb0EE5__getB8ue170006Ev, symObjAddr: 0x7088, symBinAddr: 0x10000B0B8, symSize: 0x14 }
  - { offsetInCU: 0x2140C, offset: 0x2140C, size: 0x8, addend: 0x0, symName: __ZNSt3__110unique_ptrINS_11__tree_nodeINS_12__value_typeINS_12basic_stringIcNS_11char_traitsIcEENS_9allocatorIcEEEEdEEPvEENS_22__tree_node_destructorINS6_ISB_EEEEED2B8ue170006Ev, symObjAddr: 0x709C, symBinAddr: 0x10000B0CC, symSize: 0x30 }
  - { offsetInCU: 0x21436, offset: 0x21436, size: 0x8, addend: 0x0, symName: __ZNSt3__110unique_ptrINS_11__tree_nodeINS_12__value_typeINS_12basic_stringIcNS_11char_traitsIcEENS_9allocatorIcEEEEdEEPvEENS_22__tree_node_destructorINS6_ISB_EEEEE5resetB8ue170006EPSB_, symObjAddr: 0x70CC, symBinAddr: 0x10000B0FC, symSize: 0x78 }
  - { offsetInCU: 0x2147A, offset: 0x2147A, size: 0x8, addend: 0x0, symName: __ZNSt3__122__tree_node_destructorINS_9allocatorINS_11__tree_nodeINS_12__value_typeINS_12basic_stringIcNS_11char_traitsIcEENS1_IcEEEEdEEPvEEEEEclB8ue170006EPSB_, symObjAddr: 0x7144, symBinAddr: 0x10000B174, symSize: 0x98 }
  - { offsetInCU: 0x214AF, offset: 0x214AF, size: 0x8, addend: 0x0, symName: __ZNSt3__115__tree_iteratorINS_12__value_typeINS_12basic_stringIcNS_11char_traitsIcEENS_9allocatorIcEEEEdEEPNS_11__tree_nodeIS8_PvEElEC2B8ue170006ESC_, symObjAddr: 0x71DC, symBinAddr: 0x10000B20C, symSize: 0x20 }
  - { offsetInCU: 0x214E8, offset: 0x214E8, size: 0x8, addend: 0x0, symName: __ZNSt3__14pairINS_15__tree_iteratorINS_12__value_typeINS_12basic_stringIcNS_11char_traitsIcEENS_9allocatorIcEEEEdEEPNS_11__tree_nodeIS9_PvEElEEbEC2B8ue170006ISE_RbLSB_0EEEOT_OT0_, symObjAddr: 0x71FC, symBinAddr: 0x10000B22C, symSize: 0x38 }
  - { offsetInCU: 0x21546, offset: 0x21546, size: 0x8, addend: 0x0, symName: __ZNSt3__114pointer_traitsIPNS_12__value_typeINS_12basic_stringIcNS_11char_traitsIcEENS_9allocatorIcEEEEdEEE10pointer_toB8ue170006ERS8_, symObjAddr: 0x7234, symBinAddr: 0x10000B264, symSize: 0x14 }
  - { offsetInCU: 0x21569, offset: 0x21569, size: 0x8, addend: 0x0, symName: __ZNKSt3__115__tree_iteratorINS_12__value_typeINS_12basic_stringIcNS_11char_traitsIcEENS_9allocatorIcEEEEdEEPNS_11__tree_nodeIS8_PvEElE8__get_npB8ue170006Ev, symObjAddr: 0x7248, symBinAddr: 0x10000B278, symSize: 0x18 }
  - { offsetInCU: 0x2158F, offset: 0x2158F, size: 0x8, addend: 0x0, symName: __ZNSt3__13mapINS_12basic_stringIcNS_11char_traitsIcEENS_9allocatorIcEEEEdNS_4lessIS6_EENS4_INS_4pairIKS6_dEEEEEC2B8ue170006ERKSD_, symObjAddr: 0x7260, symBinAddr: 0x10000B290, symSize: 0x88 }
  - { offsetInCU: 0x215C8, offset: 0x215C8, size: 0x8, addend: 0x0, symName: __ZNSt3__16__treeINS_12__value_typeINS_12basic_stringIcNS_11char_traitsIcEENS_9allocatorIcEEEEdEENS_19__map_value_compareIS7_S8_NS_4lessIS7_EELb1EEENS5_IS8_EEEC1ERKSE_, symObjAddr: 0x72E8, symBinAddr: 0x10000B318, symSize: 0x34 }
  - { offsetInCU: 0x21603, offset: 0x21603, size: 0x8, addend: 0x0, symName: __ZNSt3__13mapINS_12basic_stringIcNS_11char_traitsIcEENS_9allocatorIcEEEEdNS_4lessIS6_EENS4_INS_4pairIKS6_dEEEEE6insertB8ue170006INS_20__map_const_iteratorINS_21__tree_const_iteratorINS_12__value_typeIS6_dEEPNS_11__tree_nodeISI_PvEElEEEEEEvT_SP_, symObjAddr: 0x731C, symBinAddr: 0x10000B34C, symSize: 0x8C }
  - { offsetInCU: 0x2166D, offset: 0x2166D, size: 0x8, addend: 0x0, symName: __ZNKSt3__13mapINS_12basic_stringIcNS_11char_traitsIcEENS_9allocatorIcEEEEdNS_4lessIS6_EENS4_INS_4pairIKS6_dEEEEE5beginB8ue170006Ev, symObjAddr: 0x73A8, symBinAddr: 0x10000B3D8, symSize: 0x38 }
  - { offsetInCU: 0x21693, offset: 0x21693, size: 0x8, addend: 0x0, symName: __ZNKSt3__13mapINS_12basic_stringIcNS_11char_traitsIcEENS_9allocatorIcEEEEdNS_4lessIS6_EENS4_INS_4pairIKS6_dEEEEE3endB8ue170006Ev, symObjAddr: 0x73E0, symBinAddr: 0x10000B410, symSize: 0x38 }
  - { offsetInCU: 0x216B9, offset: 0x216B9, size: 0x8, addend: 0x0, symName: __ZNSt3__16__treeINS_12__value_typeINS_12basic_stringIcNS_11char_traitsIcEENS_9allocatorIcEEEEdEENS_19__map_value_compareIS7_S8_NS_4lessIS7_EELb1EEENS5_IS8_EEEC2ERKSE_, symObjAddr: 0x7418, symBinAddr: 0x10000B448, symSize: 0x9C }
  - { offsetInCU: 0x216F4, offset: 0x216F4, size: 0x8, addend: 0x0, symName: __ZNSt3__116allocator_traitsINS_9allocatorINS_11__tree_nodeINS_12__value_typeINS_12basic_stringIcNS_11char_traitsIcEENS1_IcEEEEdEEPvEEEEE37select_on_container_copy_constructionB8ue170006ISC_vvEESC_RKSC_, symObjAddr: 0x74B4, symBinAddr: 0x10000B4E4, symSize: 0x10 }
  - { offsetInCU: 0x21723, offset: 0x21723, size: 0x8, addend: 0x0, symName: __ZNKSt3__16__treeINS_12__value_typeINS_12basic_stringIcNS_11char_traitsIcEENS_9allocatorIcEEEEdEENS_19__map_value_compareIS7_S8_NS_4lessIS7_EELb1EEENS5_IS8_EEE12__node_allocB8ue170006Ev, symObjAddr: 0x74C4, symBinAddr: 0x10000B4F4, symSize: 0x28 }
  - { offsetInCU: 0x2174F, offset: 0x2174F, size: 0x8, addend: 0x0, symName: __ZNSt3__117__compressed_pairINS_15__tree_end_nodeIPNS_16__tree_node_baseIPvEEEENS_9allocatorINS_11__tree_nodeINS_12__value_typeINS_12basic_stringIcNS_11char_traitsIcEENS7_IcEEEEdEES3_EEEEEC1B8ue170006INS_18__default_init_tagESH_EEOT_OT0_, symObjAddr: 0x74EC, symBinAddr: 0x10000B51C, symSize: 0x3C }
  - { offsetInCU: 0x217A7, offset: 0x217A7, size: 0x8, addend: 0x0, symName: __ZNKSt3__16__treeINS_12__value_typeINS_12basic_stringIcNS_11char_traitsIcEENS_9allocatorIcEEEEdEENS_19__map_value_compareIS7_S8_NS_4lessIS7_EELb1EEENS5_IS8_EEE10value_compB8ue170006Ev, symObjAddr: 0x7528, symBinAddr: 0x10000B558, symSize: 0x28 }
  - { offsetInCU: 0x217CD, offset: 0x217CD, size: 0x8, addend: 0x0, symName: __ZNKSt3__117__compressed_pairINS_15__tree_end_nodeIPNS_16__tree_node_baseIPvEEEENS_9allocatorINS_11__tree_nodeINS_12__value_typeINS_12basic_stringIcNS_11char_traitsIcEENS7_IcEEEEdEES3_EEEEE6secondB8ue170006Ev, symObjAddr: 0x7550, symBinAddr: 0x10000B580, symSize: 0x24 }
  - { offsetInCU: 0x217F3, offset: 0x217F3, size: 0x8, addend: 0x0, symName: __ZNKSt3__122__compressed_pair_elemINS_9allocatorINS_11__tree_nodeINS_12__value_typeINS_12basic_stringIcNS_11char_traitsIcEENS1_IcEEEEdEEPvEEEELi1ELb1EE5__getB8ue170006Ev, symObjAddr: 0x7574, symBinAddr: 0x10000B5A4, symSize: 0x14 }
  - { offsetInCU: 0x21819, offset: 0x21819, size: 0x8, addend: 0x0, symName: __ZNSt3__117__compressed_pairINS_15__tree_end_nodeIPNS_16__tree_node_baseIPvEEEENS_9allocatorINS_11__tree_nodeINS_12__value_typeINS_12basic_stringIcNS_11char_traitsIcEENS7_IcEEEEdEES3_EEEEEC2B8ue170006INS_18__default_init_tagESH_EEOT_OT0_, symObjAddr: 0x7588, symBinAddr: 0x10000B5B8, symSize: 0x40 }
  - { offsetInCU: 0x21871, offset: 0x21871, size: 0x8, addend: 0x0, symName: __ZNSt3__122__compressed_pair_elemINS_15__tree_end_nodeIPNS_16__tree_node_baseIPvEEEELi0ELb0EEC2B8ue170006ENS_18__default_init_tagE, symObjAddr: 0x75C8, symBinAddr: 0x10000B5F8, symSize: 0x2C }
  - { offsetInCU: 0x218A5, offset: 0x218A5, size: 0x8, addend: 0x0, symName: __ZNSt3__122__compressed_pair_elemINS_9allocatorINS_11__tree_nodeINS_12__value_typeINS_12basic_stringIcNS_11char_traitsIcEENS1_IcEEEEdEEPvEEEELi1ELb1EEC2B8ue170006ISC_vEEOT_, symObjAddr: 0x75F4, symBinAddr: 0x10000B624, symSize: 0x18 }
  - { offsetInCU: 0x218E7, offset: 0x218E7, size: 0x8, addend: 0x0, symName: __ZNKSt3__117__compressed_pairImNS_19__map_value_compareINS_12basic_stringIcNS_11char_traitsIcEENS_9allocatorIcEEEENS_12__value_typeIS7_dEENS_4lessIS7_EELb1EEEE6secondB8ue170006Ev, symObjAddr: 0x760C, symBinAddr: 0x10000B63C, symSize: 0x24 }
  - { offsetInCU: 0x2190D, offset: 0x2190D, size: 0x8, addend: 0x0, symName: __ZNKSt3__122__compressed_pair_elemINS_19__map_value_compareINS_12basic_stringIcNS_11char_traitsIcEENS_9allocatorIcEEEENS_12__value_typeIS7_dEENS_4lessIS7_EELb1EEELi1ELb1EE5__getB8ue170006Ev, symObjAddr: 0x7630, symBinAddr: 0x10000B660, symSize: 0x14 }
  - { offsetInCU: 0x21933, offset: 0x21933, size: 0x8, addend: 0x0, symName: __ZNKSt3__13mapINS_12basic_stringIcNS_11char_traitsIcEENS_9allocatorIcEEEEdNS_4lessIS6_EENS4_INS_4pairIKS6_dEEEEE4cendB8ue170006Ev, symObjAddr: 0x7644, symBinAddr: 0x10000B674, symSize: 0x2C }
  - { offsetInCU: 0x21959, offset: 0x21959, size: 0x8, addend: 0x0, symName: __ZNSt3__13mapINS_12basic_stringIcNS_11char_traitsIcEENS_9allocatorIcEEEEdNS_4lessIS6_EENS4_INS_4pairIKS6_dEEEEE6insertB8ue170006ENS_20__map_const_iteratorINS_21__tree_const_iteratorINS_12__value_typeIS6_dEEPNS_11__tree_nodeISH_PvEElEEEERKSB_, symObjAddr: 0x76A0, symBinAddr: 0x10000B6D0, symSize: 0x50 }
  - { offsetInCU: 0x2199D, offset: 0x2199D, size: 0x8, addend: 0x0, symName: __ZNSt3__120__map_const_iteratorINS_21__tree_const_iteratorINS_12__value_typeINS_12basic_stringIcNS_11char_traitsIcEENS_9allocatorIcEEEEdEEPNS_11__tree_nodeIS9_PvEElEEEC1B8ue170006ESE_, symObjAddr: 0x76F0, symBinAddr: 0x10000B720, symSize: 0x34 }
  - { offsetInCU: 0x219D6, offset: 0x219D6, size: 0x8, addend: 0x0, symName: __ZNKSt3__120__map_const_iteratorINS_21__tree_const_iteratorINS_12__value_typeINS_12basic_stringIcNS_11char_traitsIcEENS_9allocatorIcEEEEdEEPNS_11__tree_nodeIS9_PvEElEEEdeB8ue170006Ev, symObjAddr: 0x7724, symBinAddr: 0x10000B754, symSize: 0x28 }
  - { offsetInCU: 0x219FC, offset: 0x219FC, size: 0x8, addend: 0x0, symName: __ZNSt3__120__map_const_iteratorINS_21__tree_const_iteratorINS_12__value_typeINS_12basic_stringIcNS_11char_traitsIcEENS_9allocatorIcEEEEdEEPNS_11__tree_nodeIS9_PvEElEEEppB8ue170006Ev, symObjAddr: 0x774C, symBinAddr: 0x10000B77C, symSize: 0x2C }
  - { offsetInCU: 0x21A22, offset: 0x21A22, size: 0x8, addend: 0x0, symName: __ZNSt3__16__treeINS_12__value_typeINS_12basic_stringIcNS_11char_traitsIcEENS_9allocatorIcEEEEdEENS_19__map_value_compareIS7_S8_NS_4lessIS7_EELb1EEENS5_IS8_EEE15__insert_uniqueB8ue170006ENS_21__tree_const_iteratorIS8_PNS_11__tree_nodeIS8_PvEElEERKNS_4pairIKS7_dEE, symObjAddr: 0x77DC, symBinAddr: 0x10000B80C, symSize: 0x64 }
  - { offsetInCU: 0x21A66, offset: 0x21A66, size: 0x8, addend: 0x0, symName: __ZNSt3__114__map_iteratorINS_15__tree_iteratorINS_12__value_typeINS_12basic_stringIcNS_11char_traitsIcEENS_9allocatorIcEEEEdEEPNS_11__tree_nodeIS9_PvEElEEEC1B8ue170006ESE_, symObjAddr: 0x7840, symBinAddr: 0x10000B870, symSize: 0x34 }
  - { offsetInCU: 0x21A9F, offset: 0x21A9F, size: 0x8, addend: 0x0, symName: __ZNSt3__16__treeINS_12__value_typeINS_12basic_stringIcNS_11char_traitsIcEENS_9allocatorIcEEEEdEENS_19__map_value_compareIS7_S8_NS_4lessIS7_EELb1EEENS5_IS8_EEE30__emplace_hint_unique_key_argsIS7_JRKNS_4pairIKS7_dEEEEENSG_INS_15__tree_iteratorIS8_PNS_11__tree_nodeIS8_PvEElEEbEENS_21__tree_const_iteratorIS8_SP_lEERKT_DpOT0_, symObjAddr: 0x7874, symBinAddr: 0x10000B8A4, symSize: 0x104 }
  - { offsetInCU: 0x21B6B, offset: 0x21B6B, size: 0x8, addend: 0x0, symName: __ZNSt3__122__tree_key_value_typesINS_12__value_typeINS_12basic_stringIcNS_11char_traitsIcEENS_9allocatorIcEEEEdEEE9__get_keyB8ue170006IKNS_4pairIKS7_dEEEENS_9enable_ifIXsr17__is_same_uncvrefIT_SD_EE5valueERSC_E4typeERSG_, symObjAddr: 0x7978, symBinAddr: 0x10000B9A8, symSize: 0x14 }
  - { offsetInCU: 0x21B98, offset: 0x21B98, size: 0x8, addend: 0x0, symName: __ZNSt3__16__treeINS_12__value_typeINS_12basic_stringIcNS_11char_traitsIcEENS_9allocatorIcEEEEdEENS_19__map_value_compareIS7_S8_NS_4lessIS7_EELb1EEENS5_IS8_EEE12__find_equalIS7_EERPNS_16__tree_node_baseIPvEENS_21__tree_const_iteratorIS8_PNS_11__tree_nodeIS8_SH_EElEERPNS_15__tree_end_nodeISJ_EESK_RKT_, symObjAddr: 0x798C, symBinAddr: 0x10000B9BC, symSize: 0x304 }
  - { offsetInCU: 0x21C41, offset: 0x21C41, size: 0x8, addend: 0x0, symName: __ZNSt3__16__treeINS_12__value_typeINS_12basic_stringIcNS_11char_traitsIcEENS_9allocatorIcEEEEdEENS_19__map_value_compareIS7_S8_NS_4lessIS7_EELb1EEENS5_IS8_EEE16__construct_nodeIJRKNS_4pairIKS7_dEEEEENS_10unique_ptrINS_11__tree_nodeIS8_PvEENS_22__tree_node_destructorINS5_ISO_EEEEEEDpOT_, symObjAddr: 0x7C90, symBinAddr: 0x10000BCC0, symSize: 0x110 }
  - { offsetInCU: 0x21CA2, offset: 0x21CA2, size: 0x8, addend: 0x0, symName: __ZNSt3__16__treeINS_12__value_typeINS_12basic_stringIcNS_11char_traitsIcEENS_9allocatorIcEEEEdEENS_19__map_value_compareIS7_S8_NS_4lessIS7_EELb1EEENS5_IS8_EEE3endB8ue170006Ev, symObjAddr: 0x7DA0, symBinAddr: 0x10000BDD0, symSize: 0x34 }
  - { offsetInCU: 0x21CC8, offset: 0x21CC8, size: 0x8, addend: 0x0, symName: __ZNSt3__121__tree_const_iteratorINS_12__value_typeINS_12basic_stringIcNS_11char_traitsIcEENS_9allocatorIcEEEEdEEPNS_11__tree_nodeIS8_PvEElEC1B8ue170006ENS_15__tree_iteratorIS8_SC_lEE, symObjAddr: 0x7DD4, symBinAddr: 0x10000BE04, symSize: 0x34 }
  - { offsetInCU: 0x21D01, offset: 0x21D01, size: 0x8, addend: 0x0, symName: __ZNKSt3__121__tree_const_iteratorINS_12__value_typeINS_12basic_stringIcNS_11char_traitsIcEENS_9allocatorIcEEEEdEEPNS_11__tree_nodeIS8_PvEElEdeB8ue170006Ev, symObjAddr: 0x7E08, symBinAddr: 0x10000BE38, symSize: 0x28 }
  - { offsetInCU: 0x21D27, offset: 0x21D27, size: 0x8, addend: 0x0, symName: __ZNSt3__16__treeINS_12__value_typeINS_12basic_stringIcNS_11char_traitsIcEENS_9allocatorIcEEEEdEENS_19__map_value_compareIS7_S8_NS_4lessIS7_EELb1EEENS5_IS8_EEE5beginB8ue170006Ev, symObjAddr: 0x7E30, symBinAddr: 0x10000BE60, symSize: 0x34 }
  - { offsetInCU: 0x21D4D, offset: 0x21D4D, size: 0x8, addend: 0x0, symName: __ZNSt3__121__tree_const_iteratorINS_12__value_typeINS_12basic_stringIcNS_11char_traitsIcEENS_9allocatorIcEEEEdEEPNS_11__tree_nodeIS8_PvEElEmmB8ue170006Ev, symObjAddr: 0x7E64, symBinAddr: 0x10000BE94, symSize: 0x38 }
  - { offsetInCU: 0x21D73, offset: 0x21D73, size: 0x8, addend: 0x0, symName: __ZNKSt3__121__tree_const_iteratorINS_12__value_typeINS_12basic_stringIcNS_11char_traitsIcEENS_9allocatorIcEEEEdEEPNS_11__tree_nodeIS8_PvEElE8__get_npB8ue170006Ev, symObjAddr: 0x7ED8, symBinAddr: 0x10000BF08, symSize: 0x18 }
  - { offsetInCU: 0x21D99, offset: 0x21D99, size: 0x8, addend: 0x0, symName: __ZNSt3__115__tree_iteratorINS_12__value_typeINS_12basic_stringIcNS_11char_traitsIcEENS_9allocatorIcEEEEdEEPNS_11__tree_nodeIS8_PvEElEC1B8ue170006EPNS_15__tree_end_nodeIPNS_16__tree_node_baseISA_EEEE, symObjAddr: 0x7EF0, symBinAddr: 0x10000BF20, symSize: 0x34 }
  - { offsetInCU: 0x21DD2, offset: 0x21DD2, size: 0x8, addend: 0x0, symName: __ZNSt3__115__tree_iteratorINS_12__value_typeINS_12basic_stringIcNS_11char_traitsIcEENS_9allocatorIcEEEEdEEPNS_11__tree_nodeIS8_PvEElEC2B8ue170006EPNS_15__tree_end_nodeIPNS_16__tree_node_baseISA_EEEE, symObjAddr: 0x7F24, symBinAddr: 0x10000BF54, symSize: 0x20 }
  - { offsetInCU: 0x21E0B, offset: 0x21E0B, size: 0x8, addend: 0x0, symName: __ZNSt3__121__tree_const_iteratorINS_12__value_typeINS_12basic_stringIcNS_11char_traitsIcEENS_9allocatorIcEEEEdEEPNS_11__tree_nodeIS8_PvEElEC2B8ue170006ENS_15__tree_iteratorIS8_SC_lEE, symObjAddr: 0x7F44, symBinAddr: 0x10000BF74, symSize: 0x20 }
  - { offsetInCU: 0x21E44, offset: 0x21E44, size: 0x8, addend: 0x0, symName: __ZNSt3__121__tree_const_iteratorINS_12__value_typeINS_12basic_stringIcNS_11char_traitsIcEENS_9allocatorIcEEEEdEEPNS_11__tree_nodeIS8_PvEElEppB8ue170006Ev, symObjAddr: 0x811C, symBinAddr: 0x10000C14C, symSize: 0x38 }
  - { offsetInCU: 0x21E6A, offset: 0x21E6A, size: 0x8, addend: 0x0, symName: __ZNSt3__116allocator_traitsINS_9allocatorINS_11__tree_nodeINS_12__value_typeINS_12basic_stringIcNS_11char_traitsIcEENS1_IcEEEEdEEPvEEEEE9constructB8ue170006INS_4pairIKS8_dEEJRKSH_EvvEEvRSC_PT_DpOT0_, symObjAddr: 0x8154, symBinAddr: 0x10000C184, symSize: 0x30 }
  - { offsetInCU: 0x21EBE, offset: 0x21EBE, size: 0x8, addend: 0x0, symName: __ZNSt3__14pairIKNS_12basic_stringIcNS_11char_traitsIcEENS_9allocatorIcEEEEdEC1B8ue170006ERKS8_, symObjAddr: 0x81C0, symBinAddr: 0x10000C1F0, symSize: 0x34 }
  - { offsetInCU: 0x21EF2, offset: 0x21EF2, size: 0x8, addend: 0x0, symName: __ZNSt3__14pairIKNS_12basic_stringIcNS_11char_traitsIcEENS_9allocatorIcEEEEdEC2B8ue170006ERKS8_, symObjAddr: 0x81F4, symBinAddr: 0x10000C224, symSize: 0x40 }
  - { offsetInCU: 0x21F26, offset: 0x21F26, size: 0x8, addend: 0x0, symName: __ZNSt3__114__map_iteratorINS_15__tree_iteratorINS_12__value_typeINS_12basic_stringIcNS_11char_traitsIcEENS_9allocatorIcEEEEdEEPNS_11__tree_nodeIS9_PvEElEEEC2B8ue170006ESE_, symObjAddr: 0x8234, symBinAddr: 0x10000C264, symSize: 0x20 }
  - { offsetInCU: 0x21F5F, offset: 0x21F5F, size: 0x8, addend: 0x0, symName: __ZNSt3__120__map_const_iteratorINS_21__tree_const_iteratorINS_12__value_typeINS_12basic_stringIcNS_11char_traitsIcEENS_9allocatorIcEEEEdEEPNS_11__tree_nodeIS9_PvEElEEEC2B8ue170006ESE_, symObjAddr: 0x8254, symBinAddr: 0x10000C284, symSize: 0x20 }
  - { offsetInCU: 0x21F98, offset: 0x21F98, size: 0x8, addend: 0x0, symName: __ZNKSt3__121__tree_const_iteratorINS_12__value_typeINS_12basic_stringIcNS_11char_traitsIcEENS_9allocatorIcEEEEdEEPNS_11__tree_nodeIS8_PvEElEptB8ue170006Ev, symObjAddr: 0x8274, symBinAddr: 0x10000C2A4, symSize: 0x2C }
  - { offsetInCU: 0x21FBE, offset: 0x21FBE, size: 0x8, addend: 0x0, symName: __ZNSt3__114pointer_traitsIPKNS_12__value_typeINS_12basic_stringIcNS_11char_traitsIcEENS_9allocatorIcEEEEdEEE10pointer_toB8ue170006ERS9_, symObjAddr: 0x82A0, symBinAddr: 0x10000C2D0, symSize: 0x14 }
  - { offsetInCU: 0x21FE1, offset: 0x21FE1, size: 0x8, addend: 0x0, symName: __ZNKSt3__16__treeINS_12__value_typeINS_12basic_stringIcNS_11char_traitsIcEENS_9allocatorIcEEEEdEENS_19__map_value_compareIS7_S8_NS_4lessIS7_EELb1EEENS5_IS8_EEE5beginB8ue170006Ev, symObjAddr: 0x82B4, symBinAddr: 0x10000C2E4, symSize: 0x34 }
  - { offsetInCU: 0x22007, offset: 0x22007, size: 0x8, addend: 0x0, symName: __ZNKSt3__16__treeINS_12__value_typeINS_12basic_stringIcNS_11char_traitsIcEENS_9allocatorIcEEEEdEENS_19__map_value_compareIS7_S8_NS_4lessIS7_EELb1EEENS5_IS8_EEE12__begin_nodeB8ue170006Ev, symObjAddr: 0x82E8, symBinAddr: 0x10000C318, symSize: 0x14 }
  - { offsetInCU: 0x2202D, offset: 0x2202D, size: 0x8, addend: 0x0, symName: __ZNSt3__121__tree_const_iteratorINS_12__value_typeINS_12basic_stringIcNS_11char_traitsIcEENS_9allocatorIcEEEEdEEPNS_11__tree_nodeIS8_PvEElEC1B8ue170006EPNS_15__tree_end_nodeIPNS_16__tree_node_baseISA_EEEE, symObjAddr: 0x82FC, symBinAddr: 0x10000C32C, symSize: 0x34 }
  - { offsetInCU: 0x22066, offset: 0x22066, size: 0x8, addend: 0x0, symName: __ZNSt3__121__tree_const_iteratorINS_12__value_typeINS_12basic_stringIcNS_11char_traitsIcEENS_9allocatorIcEEEEdEEPNS_11__tree_nodeIS8_PvEElEC2B8ue170006EPNS_15__tree_end_nodeIPNS_16__tree_node_baseISA_EEEE, symObjAddr: 0x8330, symBinAddr: 0x10000C360, symSize: 0x20 }
  - { offsetInCU: 0x2209F, offset: 0x2209F, size: 0x8, addend: 0x0, symName: __ZNKSt3__16__treeINS_12__value_typeINS_12basic_stringIcNS_11char_traitsIcEENS_9allocatorIcEEEEdEENS_19__map_value_compareIS7_S8_NS_4lessIS7_EELb1EEENS5_IS8_EEE3endB8ue170006Ev, symObjAddr: 0x8350, symBinAddr: 0x10000C380, symSize: 0x34 }
  - { offsetInCU: 0x220C5, offset: 0x220C5, size: 0x8, addend: 0x0, symName: __ZNSt3__114pointer_traitsIPNS_4pairIKNS_12basic_stringIcNS_11char_traitsIcEENS_9allocatorIcEEEEdEEE10pointer_toB8ue170006ERS9_, symObjAddr: 0x83E8, symBinAddr: 0x10000C418, symSize: 0x14 }
  - { offsetInCU: 0x220E8, offset: 0x220E8, size: 0x8, addend: 0x0, symName: __ZNSt3__115__tree_iteratorINS_12__value_typeINS_12basic_stringIcNS_11char_traitsIcEENS_9allocatorIcEEEEdEEPNS_11__tree_nodeIS8_PvEElEppB8ue170006Ev, symObjAddr: 0x83FC, symBinAddr: 0x10000C42C, symSize: 0x38 }
  - { offsetInCU: 0x2210E, offset: 0x2210E, size: 0x8, addend: 0x0, symName: __ZNSt3__16__treeINS_12__value_typeINS_12basic_stringIcNS_11char_traitsIcEENS_9allocatorIcEEEEdEENS_19__map_value_compareIS7_S8_NS_4lessIS7_EELb1EEENS5_IS8_EEE25__emplace_unique_key_argsIS7_JRKNS_21piecewise_construct_tENS_5tupleIJOS7_EEENSJ_IJEEEEEENS_4pairINS_15__tree_iteratorIS8_PNS_11__tree_nodeIS8_PvEElEEbEERKT_DpOT0_, symObjAddr: 0x8434, symBinAddr: 0x10000C464, symSize: 0x100 }
  - { offsetInCU: 0x221E4, offset: 0x221E4, size: 0x8, addend: 0x0, symName: __ZNSt3__16__treeINS_12__value_typeINS_12basic_stringIcNS_11char_traitsIcEENS_9allocatorIcEEEEdEENS_19__map_value_compareIS7_S8_NS_4lessIS7_EELb1EEENS5_IS8_EEE16__construct_nodeIJRKNS_21piecewise_construct_tENS_5tupleIJOS7_EEENSJ_IJEEEEEENS_10unique_ptrINS_11__tree_nodeIS8_PvEENS_22__tree_node_destructorINS5_ISQ_EEEEEEDpOT_, symObjAddr: 0x8560, symBinAddr: 0x10000C590, symSize: 0x120 }
  - { offsetInCU: 0x2226D, offset: 0x2226D, size: 0x8, addend: 0x0, symName: __ZNSt3__116allocator_traitsINS_9allocatorINS_11__tree_nodeINS_12__value_typeINS_12basic_stringIcNS_11char_traitsIcEENS1_IcEEEEdEEPvEEEEE9constructB8ue170006INS_4pairIKS8_dEEJRKNS_21piecewise_construct_tENS_5tupleIJOS8_EEENSL_IJEEEEvvEEvRSC_PT_DpOT0_, symObjAddr: 0x8680, symBinAddr: 0x10000C6B0, symSize: 0x40 }
  - { offsetInCU: 0x222E9, offset: 0x222E9, size: 0x8, addend: 0x0, symName: __ZNSt3__14pairIKNS_12basic_stringIcNS_11char_traitsIcEENS_9allocatorIcEEEEdEC1B8ue170006IJOS6_EJEEENS_21piecewise_construct_tENS_5tupleIJDpT_EEENSC_IJDpT0_EEE, symObjAddr: 0x8710, symBinAddr: 0x10000C740, symSize: 0x44 }
  - { offsetInCU: 0x22350, offset: 0x22350, size: 0x8, addend: 0x0, symName: __ZNSt3__14pairIKNS_12basic_stringIcNS_11char_traitsIcEENS_9allocatorIcEEEEdEC1B8ue170006IJOS6_EJEJLm0EEJEEENS_21piecewise_construct_tERNS_5tupleIJDpT_EEERNSC_IJDpT0_EEENS_15__tuple_indicesIJXspT1_EEEENSL_IJXspT2_EEEE, symObjAddr: 0x8754, symBinAddr: 0x10000C784, symSize: 0x3C }
  - { offsetInCU: 0x223DD, offset: 0x223DD, size: 0x8, addend: 0x0, symName: __ZNSt3__14pairIKNS_12basic_stringIcNS_11char_traitsIcEENS_9allocatorIcEEEEdEC2B8ue170006IJOS6_EJEJLm0EEJEEENS_21piecewise_construct_tERNS_5tupleIJDpT_EEERNSC_IJDpT0_EEENS_15__tuple_indicesIJXspT1_EEEENSL_IJXspT2_EEEE, symObjAddr: 0x8790, symBinAddr: 0x10000C7C0, symSize: 0x4C }
  - { offsetInCU: 0x2246A, offset: 0x2246A, size: 0x8, addend: 0x0, symName: __ZNSt3__112basic_stringIcNS_11char_traitsIcEENS_9allocatorIcEEEC1B8ue170006EOS5_, symObjAddr: 0x8800, symBinAddr: 0x10000C830, symSize: 0x34 }
  - { offsetInCU: 0x224A3, offset: 0x224A3, size: 0x8, addend: 0x0, symName: __ZNSt3__112__tuple_leafILm0EONS_12basic_stringIcNS_11char_traitsIcEENS_9allocatorIcEEEELb0EE3getB8ue170006Ev, symObjAddr: 0x8834, symBinAddr: 0x10000C864, symSize: 0x18 }
  - { offsetInCU: 0x224C9, offset: 0x224C9, size: 0x8, addend: 0x0, symName: __ZNSt3__112basic_stringIcNS_11char_traitsIcEENS_9allocatorIcEEEC2B8ue170006EOS5_, symObjAddr: 0x884C, symBinAddr: 0x10000C87C, symSize: 0x48 }
  - { offsetInCU: 0x22502, offset: 0x22502, size: 0x8, addend: 0x0, symName: __ZNSt3__15tupleIJONS_12basic_stringIcNS_11char_traitsIcEENS_9allocatorIcEEEEEEC1B8ue170006IJS6_ELi0EEEDpOT_, symObjAddr: 0x8894, symBinAddr: 0x10000C8C4, symSize: 0x34 }
  - { offsetInCU: 0x2254C, offset: 0x2254C, size: 0x8, addend: 0x0, symName: __ZNSt3__15tupleIJONS_12basic_stringIcNS_11char_traitsIcEENS_9allocatorIcEEEEEEC2B8ue170006IJS6_ELi0EEEDpOT_, symObjAddr: 0x88C8, symBinAddr: 0x10000C8F8, symSize: 0x34 }
  - { offsetInCU: 0x22596, offset: 0x22596, size: 0x8, addend: 0x0, symName: __ZNSt3__112__tuple_implINS_15__tuple_indicesIJLm0EEEEJONS_12basic_stringIcNS_11char_traitsIcEENS_9allocatorIcEEEEEEC1B8ue170006IJLm0EEJS9_EJEJEJS8_EEENS1_IJXspT_EEEENS_13__tuple_typesIJDpT0_EEENS1_IJXspT1_EEEENSD_IJDpT2_EEEDpOT3_, symObjAddr: 0x88FC, symBinAddr: 0x10000C92C, symSize: 0x34 }
  - { offsetInCU: 0x22627, offset: 0x22627, size: 0x8, addend: 0x0, symName: __ZNSt3__112__tuple_implINS_15__tuple_indicesIJLm0EEEEJONS_12basic_stringIcNS_11char_traitsIcEENS_9allocatorIcEEEEEEC2B8ue170006IJLm0EEJS9_EJEJEJS8_EEENS1_IJXspT_EEEENS_13__tuple_typesIJDpT0_EEENS1_IJXspT1_EEEENSD_IJDpT2_EEEDpOT3_, symObjAddr: 0x8930, symBinAddr: 0x10000C960, symSize: 0x34 }
  - { offsetInCU: 0x226B8, offset: 0x226B8, size: 0x8, addend: 0x0, symName: __ZNSt3__112__tuple_leafILm0EONS_12basic_stringIcNS_11char_traitsIcEENS_9allocatorIcEEEELb0EEC2B8ue170006IS6_vEEOT_, symObjAddr: 0x8964, symBinAddr: 0x10000C994, symSize: 0x20 }
  - { offsetInCU: 0x2271F, offset: 0x2271F, size: 0x8, addend: 0x0, symName: __ZNKSt3__113basic_ostreamIcNS_11char_traitsIcEEE6sentrycvbB8ue170006Ev, symObjAddr: 0x8B70, symBinAddr: 0x10000CBA0, symSize: 0x1C }
  - { offsetInCU: 0x22745, offset: 0x22745, size: 0x8, addend: 0x0, symName: __ZNSt3__119ostreambuf_iteratorIcNS_11char_traitsIcEEEC1B8ue170006ERNS_13basic_ostreamIcS2_EE, symObjAddr: 0x8DCC, symBinAddr: 0x10000CDFC, symSize: 0x34 }
  - { offsetInCU: 0x2277D, offset: 0x2277D, size: 0x8, addend: 0x0, symName: __ZNKSt3__18ios_base5flagsB8ue170006Ev, symObjAddr: 0x8E00, symBinAddr: 0x10000CE30, symSize: 0x18 }
  - { offsetInCU: 0x227A5, offset: 0x227A5, size: 0x8, addend: 0x0, symName: __ZNKSt3__19basic_iosIcNS_11char_traitsIcEEE4fillB8ue170006Ev, symObjAddr: 0x8E18, symBinAddr: 0x10000CE48, symSize: 0x64 }
  - { offsetInCU: 0x227CD, offset: 0x227CD, size: 0x8, addend: 0x0, symName: __ZNKSt3__119ostreambuf_iteratorIcNS_11char_traitsIcEEE6failedB8ue170006Ev, symObjAddr: 0x8E7C, symBinAddr: 0x10000CEAC, symSize: 0x24 }
  - { offsetInCU: 0x227F3, offset: 0x227F3, size: 0x8, addend: 0x0, symName: __ZNKSt3__18ios_base5widthB8ue170006Ev, symObjAddr: 0x8EA0, symBinAddr: 0x10000CED0, symSize: 0x18 }
  - { offsetInCU: 0x2281B, offset: 0x2281B, size: 0x8, addend: 0x0, symName: __ZNSt3__115basic_streambufIcNS_11char_traitsIcEEE5sputnB8ue170006EPKcl, symObjAddr: 0x8EB8, symBinAddr: 0x10000CEE8, symSize: 0x3C }
  - { offsetInCU: 0x2285D, offset: 0x2285D, size: 0x8, addend: 0x0, symName: __ZNSt3__112basic_stringIcNS_11char_traitsIcEENS_9allocatorIcEEEC1B8ue170006Emc, symObjAddr: 0x8EF4, symBinAddr: 0x10000CF24, symSize: 0x3C }
  - { offsetInCU: 0x228A5, offset: 0x228A5, size: 0x8, addend: 0x0, symName: __ZNSt3__112basic_stringIcNS_11char_traitsIcEENS_9allocatorIcEEE4dataB8ue170006Ev, symObjAddr: 0x8F30, symBinAddr: 0x10000CF60, symSize: 0x28 }
  - { offsetInCU: 0x228CB, offset: 0x228CB, size: 0x8, addend: 0x0, symName: __ZNSt3__18ios_base5widthB8ue170006El, symObjAddr: 0x8F58, symBinAddr: 0x10000CF88, symSize: 0x2C }
  - { offsetInCU: 0x22911, offset: 0x22911, size: 0x8, addend: 0x0, symName: __ZNSt3__112basic_stringIcNS_11char_traitsIcEENS_9allocatorIcEEEC2B8ue170006Emc, symObjAddr: 0x8F84, symBinAddr: 0x10000CFB4, symSize: 0x4C }
  - { offsetInCU: 0x22959, offset: 0x22959, size: 0x8, addend: 0x0, symName: __ZNSt3__119ostreambuf_iteratorIcNS_11char_traitsIcEEEC2B8ue170006ERNS_13basic_ostreamIcS2_EE, symObjAddr: 0x8FD0, symBinAddr: 0x10000D000, symSize: 0x54 }
  - { offsetInCU: 0x5AF7, offset: 0x286C7, size: 0x8, addend: 0x0, symName: __ZNSt3__16ranges5__cpo9iter_moveE, symObjAddr: 0xD198, symBinAddr: 0x10001B340, symSize: 0x0 }
  - { offsetInCU: 0x7224, offset: 0x29DF4, size: 0x8, addend: 0x0, symName: __ZNSt3__17advanceB8ue170006INS_11__wrap_iterIPP8KeyboardEEllvEEvRT_T0_, symObjAddr: 0x7C8C, symBinAddr: 0x10001445C, symSize: 0x38 }
  - { offsetInCU: 0x72AB, offset: 0x29E7B, size: 0x8, addend: 0x0, symName: __ZNSt3__19__shuffleB8ue170006INS_17_ClassicAlgPolicyENS_11__wrap_iterIPcEES4_RNS_26linear_congruential_engineIjLj48271ELj0ELj2147483647EEEEET0_S8_T1_OT2_, symObjAddr: 0x95CC, symBinAddr: 0x100014868, symSize: 0x13C }
  - { offsetInCU: 0x8369, offset: 0x2AF39, size: 0x8, addend: 0x0, symName: '__ZNSt3__19remove_ifB8ue170006INS_11__wrap_iterIPcEEZN8KeyboardC1ENS_5arrayIcLm24EEEE3$_0EET_S8_S8_T0_', symObjAddr: 0x47C, symBinAddr: 0x10000D584, symSize: 0x104 }
  - { offsetInCU: 0x83FD, offset: 0x2AFCD, size: 0x8, addend: 0x0, symName: '__ZNSt3__111upper_boundB8ue170006INS_11__wrap_iterIPP8KeyboardEES3_ZNS2_14breedOrganismsES3_S3_PNS_3mapINS_12basic_stringIcNS_11char_traitsIcEENS_9allocatorIcEEEEdNS_4lessISC_EENSA_INS_4pairIKSC_dEEEEEESK_E3$_1EET_SM_SM_RKT0_T1_', symObjAddr: 0x16EC, symBinAddr: 0x10000E7F4, symSize: 0x60 }
  - { offsetInCU: 0x846F, offset: 0x2B03F, size: 0x8, addend: 0x0, symName: '__ZNSt3__111upper_boundB8ue170006INS_11__wrap_iterIPP8KeyboardEES3_ZNS2_14breedOrganismsES3_S3_PNS_3mapINS_12basic_stringIcNS_11char_traitsIcEENS_9allocatorIcEEEEdNS_4lessISC_EENSA_INS_4pairIKSC_dEEEEEESK_E3$_2EET_SM_SM_RKT0_T1_', symObjAddr: 0x17E8, symBinAddr: 0x10000E8F0, symSize: 0x60 }
  - { offsetInCU: 0x84E1, offset: 0x2B0B1, size: 0x8, addend: 0x0, symName: __ZNSt3__1miB8ue170006IPKcPcEEDTmicldtfp_4baseEcldtfp0_4baseEERKNS_11__wrap_iterIT_EERKNS5_IT0_EE, symObjAddr: 0x26F0, symBinAddr: 0x10000F4B4, symSize: 0x40 }
  - { offsetInCU: 0x852D, offset: 0x2B0FD, size: 0x8, addend: 0x0, symName: __ZNSt3__1neB8ue170006IPKcEEbRKNS_11__wrap_iterIT_EES7_, symObjAddr: 0x2730, symBinAddr: 0x10000F4F4, symSize: 0x34 }
  - { offsetInCU: 0x8570, offset: 0x2B140, size: 0x8, addend: 0x0, symName: __ZNSt3__14moveB8ue170006IPcS1_EET0_T_S3_S2_, symObjAddr: 0x27B0, symBinAddr: 0x10000F574, symSize: 0x40 }
  - { offsetInCU: 0x85CA, offset: 0x2B19A, size: 0x8, addend: 0x0, symName: __ZNSt3__1miB8ue170006IPKcS2_EEDTmicldtfp_4baseEcldtfp0_4baseEERKNS_11__wrap_iterIT_EERKNS4_IT0_EE, symObjAddr: 0x27F0, symBinAddr: 0x10000F5B4, symSize: 0x40 }
  - { offsetInCU: 0x8616, offset: 0x2B1E6, size: 0x8, addend: 0x0, symName: __ZNSt3__1eqB8ue170006IPKcEEbRKNS_11__wrap_iterIT_EES7_, symObjAddr: 0x2890, symBinAddr: 0x10000F654, symSize: 0x48 }
  - { offsetInCU: 0x8659, offset: 0x2B229, size: 0x8, addend: 0x0, symName: __ZNSt3__110destroy_atB8ue170006IcLi0EEEvPT_, symObjAddr: 0x2A7C, symBinAddr: 0x10000F82C, symSize: 0x24 }
  - { offsetInCU: 0x8690, offset: 0x2B260, size: 0x8, addend: 0x0, symName: __ZNSt3__112__destroy_atB8ue170006IcLi0EEEvPT_, symObjAddr: 0x2AA0, symBinAddr: 0x10000F850, symSize: 0x10 }
  - { offsetInCU: 0x86C8, offset: 0x2B298, size: 0x8, addend: 0x0, symName: __ZNSt3__16__moveB8ue170006INS_17_ClassicAlgPolicyEPcS2_S2_EENS_4pairIT0_T2_EES4_T1_S5_, symObjAddr: 0x2BC8, symBinAddr: 0x10000F964, symSize: 0x44 }
  - { offsetInCU: 0x8734, offset: 0x2B304, size: 0x8, addend: 0x0, symName: __ZNSt3__123__dispatch_copy_or_moveB8ue170006INS_17_ClassicAlgPolicyENS_11__move_loopIS1_EENS_14__move_trivialEPcS5_S5_EENS_4pairIT2_T4_EES7_T3_S8_, symObjAddr: 0x2C0C, symBinAddr: 0x10000F9A8, symSize: 0x44 }
  - { offsetInCU: 0x87B2, offset: 0x2B382, size: 0x8, addend: 0x0, symName: __ZNSt3__121__unwrap_and_dispatchB8ue170006INS_10__overloadINS_11__move_loopINS_17_ClassicAlgPolicyEEENS_14__move_trivialEEEPcS7_S7_Li0EEENS_4pairIT0_T2_EES9_T1_SA_, symObjAddr: 0x2C50, symBinAddr: 0x10000F9EC, symSize: 0xB4 }
  - { offsetInCU: 0x8840, offset: 0x2B410, size: 0x8, addend: 0x0, symName: __ZNSt3__114__unwrap_rangeB8ue170006IPcS1_EEDaT_T0_, symObjAddr: 0x2D04, symBinAddr: 0x10000FAA0, symSize: 0x3C }
  - { offsetInCU: 0x8A11, offset: 0x2B5E1, size: 0x8, addend: 0x0, symName: __ZNSt3__19make_pairB8ue170006IPcS1_EENS_4pairINS_18__unwrap_ref_decayIT_E4typeENS3_IT0_E4typeEEEOS4_OS7_, symObjAddr: 0x2DAC, symBinAddr: 0x10000FB24, symSize: 0x38 }
  - { offsetInCU: 0x8A60, offset: 0x2B630, size: 0x8, addend: 0x0, symName: __ZNSt3__114__rewrap_rangeB8ue170006IPcS1_S1_EET0_S2_T1_, symObjAddr: 0x2DE4, symBinAddr: 0x10000FB5C, symSize: 0x2C }
  - { offsetInCU: 0x8B05, offset: 0x2B6D5, size: 0x8, addend: 0x0, symName: __ZNSt3__119__copy_trivial_implB8ue170006IccEENS_4pairIPT_PT0_EES3_S3_S5_, symObjAddr: 0x2F14, symBinAddr: 0x10000FC50, symSize: 0x78 }
  - { offsetInCU: 0x8B6D, offset: 0x2B73D, size: 0x8, addend: 0x0, symName: __ZNSt3__119__constexpr_memmoveB8ue170006IccLi0EEEPT_S2_PT0_NS_15__element_countE, symObjAddr: 0x2F8C, symBinAddr: 0x10000FCC8, symSize: 0x64 }
  - { offsetInCU: 0x8BDB, offset: 0x2B7AB, size: 0x8, addend: 0x0, symName: __ZNSt3__19make_pairB8ue170006IRPcS1_EENS_4pairINS_18__unwrap_ref_decayIT_E4typeENS4_IT0_E4typeEEEOS5_OS8_, symObjAddr: 0x2FF0, symBinAddr: 0x10000FD2C, symSize: 0x38 }
  - { offsetInCU: 0x8C2A, offset: 0x2B7FA, size: 0x8, addend: 0x0, symName: '__ZNSt3__17find_ifB8ue170006INS_11__wrap_iterIPcEERZN8KeyboardC1ENS_5arrayIcLm24EEEE3$_0EET_S9_S9_T0_', symObjAddr: 0x3184, symBinAddr: 0x10000FE54, symSize: 0x84 }
  - { offsetInCU: 0x8C85, offset: 0x2B855, size: 0x8, addend: 0x0, symName: __ZNSt3__1neB8ue170006IPcEEbRKNS_11__wrap_iterIT_EES6_, symObjAddr: 0x3208, symBinAddr: 0x10000FED8, symSize: 0x34 }
  - { offsetInCU: 0x8CC8, offset: 0x2B898, size: 0x8, addend: 0x0, symName: __ZNSt3__1eqB8ue170006IPcEEbRKNS_11__wrap_iterIT_EES6_, symObjAddr: 0x32E8, symBinAddr: 0x10000FFB8, symSize: 0x48 }
  - { offsetInCU: 0x8D0B, offset: 0x2B8DB, size: 0x8, addend: 0x0, symName: __ZNSt3__112__to_addressB8ue170006IP8KeyboardEEPT_S4_, symObjAddr: 0x398C, symBinAddr: 0x100010534, symSize: 0x14 }
  - { offsetInCU: 0x8D65, offset: 0x2B935, size: 0x8, addend: 0x0, symName: __ZNSt3__112construct_atB8ue170006IP8KeyboardJS2_EPS2_EEPT_S5_DpOT0_, symObjAddr: 0x3A10, symBinAddr: 0x1000105B8, symSize: 0x2C }
  - { offsetInCU: 0x8DD5, offset: 0x2B9A5, size: 0x8, addend: 0x0, symName: __ZNSt3__13maxB8ue170006ImEERKT_S3_S3_, symObjAddr: 0x3D84, symBinAddr: 0x10001092C, symSize: 0x2C }
  - { offsetInCU: 0x9002, offset: 0x2BBD2, size: 0x8, addend: 0x0, symName: __ZNSt3__13maxB8ue170006ImNS_6__lessIvvEEEERKT_S5_S5_T0_, symObjAddr: 0x4068, symBinAddr: 0x100010A5C, symSize: 0x54 }
  - { offsetInCU: 0x905C, offset: 0x2BC2C, size: 0x8, addend: 0x0, symName: __ZNSt3__119__allocate_at_leastB8ue170006INS_9allocatorIP8KeyboardEEEENS_19__allocation_resultINS_16allocator_traitsIT_E7pointerEEERS7_m, symObjAddr: 0x41CC, symBinAddr: 0x100010BC0, symSize: 0x40 }
  - { offsetInCU: 0x909F, offset: 0x2BC6F, size: 0x8, addend: 0x0, symName: __ZNSt3__142__uninitialized_allocator_move_if_noexceptB8ue170006INS_9allocatorIP8KeyboardEENS_16reverse_iteratorIPS3_EES7_S3_vEET1_RT_T0_SB_S8_, symObjAddr: 0x451C, symBinAddr: 0x100010E2C, symSize: 0x78 }
  - { offsetInCU: 0x911C, offset: 0x2BCEC, size: 0x8, addend: 0x0, symName: __ZNSt3__14swapB8ue170006IPP8KeyboardEENS_9enable_ifIXaasr21is_move_constructibleIT_EE5valuesr18is_move_assignableIS5_EE5valueEvE4typeERS5_S8_, symObjAddr: 0x45E0, symBinAddr: 0x100010EF0, symSize: 0x3C }
  - { offsetInCU: 0x916D, offset: 0x2BD3D, size: 0x8, addend: 0x0, symName: __ZNSt3__14moveB8ue170006INS_16reverse_iteratorIPP8KeyboardEES5_EET0_T_S7_S6_, symObjAddr: 0x4710, symBinAddr: 0x100011020, symSize: 0x78 }
  - { offsetInCU: 0x91C7, offset: 0x2BD97, size: 0x8, addend: 0x0, symName: __ZNSt3__16__moveB8ue170006INS_17_ClassicAlgPolicyENS_16reverse_iteratorIPP8KeyboardEES6_S6_EENS_4pairIT0_T2_EES8_T1_S9_, symObjAddr: 0x4788, symBinAddr: 0x100011098, symSize: 0x64 }
  - { offsetInCU: 0x9233, offset: 0x2BE03, size: 0x8, addend: 0x0, symName: __ZNSt3__123__dispatch_copy_or_moveB8ue170006INS_17_ClassicAlgPolicyENS_11__move_loopIS1_EENS_14__move_trivialENS_16reverse_iteratorIPP8KeyboardEES9_S9_EENS_4pairIT2_T4_EESB_T3_SC_, symObjAddr: 0x47EC, symBinAddr: 0x1000110FC, symSize: 0x64 }
  - { offsetInCU: 0x92B1, offset: 0x2BE81, size: 0x8, addend: 0x0, symName: __ZNSt3__121__unwrap_and_dispatchB8ue170006INS_10__overloadINS_11__move_loopINS_17_ClassicAlgPolicyEEENS_14__move_trivialEEENS_16reverse_iteratorIPP8KeyboardEESB_SB_Li0EEENS_4pairIT0_T2_EESD_T1_SE_, symObjAddr: 0x4850, symBinAddr: 0x100011160, symSize: 0x12C }
  - { offsetInCU: 0x9341, offset: 0x2BF11, size: 0x8, addend: 0x0, symName: __ZNSt3__114__unwrap_rangeB8ue170006INS_16reverse_iteratorIPP8KeyboardEES5_EEDaT_T0_, symObjAddr: 0x497C, symBinAddr: 0x10001128C, symSize: 0x4C }
  - { offsetInCU: 0x94F2, offset: 0x2C0C2, size: 0x8, addend: 0x0, symName: __ZNSt3__113__unwrap_iterB8ue170006INS_16reverse_iteratorIPP8KeyboardEENS_18__unwrap_iter_implIS5_Lb0EEELi0EEEDTclsrT0_8__unwrapclsr3stdE7declvalIT_EEEES9_, symObjAddr: 0x4A68, symBinAddr: 0x100011378, symSize: 0x44 }
  - { offsetInCU: 0x9536, offset: 0x2C106, size: 0x8, addend: 0x0, symName: __ZNSt3__19make_pairB8ue170006INS_16reverse_iteratorIPP8KeyboardEES5_EENS_4pairINS_18__unwrap_ref_decayIT_E4typeENS7_IT0_E4typeEEEOS8_OSB_, symObjAddr: 0x4AAC, symBinAddr: 0x1000113BC, symSize: 0x38 }
  - { offsetInCU: 0x9585, offset: 0x2C155, size: 0x8, addend: 0x0, symName: __ZNSt3__114__rewrap_rangeB8ue170006INS_16reverse_iteratorIPP8KeyboardEES5_S5_EET0_S6_T1_, symObjAddr: 0x4AE4, symBinAddr: 0x1000113F4, symSize: 0x5C }
  - { offsetInCU: 0x95DA, offset: 0x2C1AA, size: 0x8, addend: 0x0, symName: __ZNSt3__113__rewrap_iterB8ue170006INS_16reverse_iteratorIPP8KeyboardEES5_NS_18__unwrap_iter_implIS5_Lb0EEEEET_S8_T0_, symObjAddr: 0x4B40, symBinAddr: 0x100011450, symSize: 0x74 }
  - { offsetInCU: 0x967F, offset: 0x2C24F, size: 0x8, addend: 0x0, symName: __ZNSt3__1neB8ue170006IPP8KeyboardS3_EEbRKNS_16reverse_iteratorIT_EERKNS4_IT0_EE, symObjAddr: 0x4CA8, symBinAddr: 0x1000115B8, symSize: 0x48 }
  - { offsetInCU: 0x9841, offset: 0x2C411, size: 0x8, addend: 0x0, symName: __ZNSt3__110destroy_atB8ue170006IP8KeyboardLi0EEEvPT_, symObjAddr: 0x5034, symBinAddr: 0x100011944, symSize: 0x24 }
  - { offsetInCU: 0x9878, offset: 0x2C448, size: 0x8, addend: 0x0, symName: __ZNSt3__112__destroy_atB8ue170006IP8KeyboardLi0EEEvPT_, symObjAddr: 0x5058, symBinAddr: 0x100011968, symSize: 0x10 }
  - { offsetInCU: 0x98D5, offset: 0x2C4A5, size: 0x8, addend: 0x0, symName: __ZNSt3__112construct_atB8ue170006IcJRcEPcEEPT_S4_DpOT0_, symObjAddr: 0x5504, symBinAddr: 0x100011DA8, symSize: 0x2C }
  - { offsetInCU: 0x9945, offset: 0x2C515, size: 0x8, addend: 0x0, symName: __ZNSt3__142__uninitialized_allocator_move_if_noexceptB8ue170006INS_9allocatorIcEENS_16reverse_iteratorIPcEES5_cvEET1_RT_T0_S9_S6_, symObjAddr: 0x5B4C, symBinAddr: 0x10001231C, symSize: 0x78 }
  - { offsetInCU: 0x99C2, offset: 0x2C592, size: 0x8, addend: 0x0, symName: __ZNSt3__14swapB8ue170006IPcEENS_9enable_ifIXaasr21is_move_constructibleIT_EE5valuesr18is_move_assignableIS3_EE5valueEvE4typeERS3_S6_, symObjAddr: 0x5C10, symBinAddr: 0x1000123E0, symSize: 0x3C }
  - { offsetInCU: 0x9A13, offset: 0x2C5E3, size: 0x8, addend: 0x0, symName: __ZNSt3__14moveB8ue170006INS_16reverse_iteratorIPcEES3_EET0_T_S5_S4_, symObjAddr: 0x5CF8, symBinAddr: 0x1000124C8, symSize: 0x78 }
  - { offsetInCU: 0x9A6D, offset: 0x2C63D, size: 0x8, addend: 0x0, symName: __ZNSt3__16__moveB8ue170006INS_17_ClassicAlgPolicyENS_16reverse_iteratorIPcEES4_S4_EENS_4pairIT0_T2_EES6_T1_S7_, symObjAddr: 0x5D70, symBinAddr: 0x100012540, symSize: 0x64 }
  - { offsetInCU: 0x9AD9, offset: 0x2C6A9, size: 0x8, addend: 0x0, symName: __ZNSt3__123__dispatch_copy_or_moveB8ue170006INS_17_ClassicAlgPolicyENS_11__move_loopIS1_EENS_14__move_trivialENS_16reverse_iteratorIPcEES7_S7_EENS_4pairIT2_T4_EES9_T3_SA_, symObjAddr: 0x5DD4, symBinAddr: 0x1000125A4, symSize: 0x64 }
  - { offsetInCU: 0x9B57, offset: 0x2C727, size: 0x8, addend: 0x0, symName: __ZNSt3__121__unwrap_and_dispatchB8ue170006INS_10__overloadINS_11__move_loopINS_17_ClassicAlgPolicyEEENS_14__move_trivialEEENS_16reverse_iteratorIPcEES9_S9_Li0EEENS_4pairIT0_T2_EESB_T1_SC_, symObjAddr: 0x5E38, symBinAddr: 0x100012608, symSize: 0x12C }
  - { offsetInCU: 0x9BE7, offset: 0x2C7B7, size: 0x8, addend: 0x0, symName: __ZNSt3__114__unwrap_rangeB8ue170006INS_16reverse_iteratorIPcEES3_EEDaT_T0_, symObjAddr: 0x5F64, symBinAddr: 0x100012734, symSize: 0x4C }
  - { offsetInCU: 0x9D07, offset: 0x2C8D7, size: 0x8, addend: 0x0, symName: __ZNSt3__113__unwrap_iterB8ue170006INS_16reverse_iteratorIPcEENS_18__unwrap_iter_implIS3_Lb0EEELi0EEEDTclsrT0_8__unwrapclsr3stdE7declvalIT_EEEES7_, symObjAddr: 0x6050, symBinAddr: 0x100012820, symSize: 0x44 }
  - { offsetInCU: 0x9D4B, offset: 0x2C91B, size: 0x8, addend: 0x0, symName: __ZNSt3__19make_pairB8ue170006INS_16reverse_iteratorIPcEES3_EENS_4pairINS_18__unwrap_ref_decayIT_E4typeENS5_IT0_E4typeEEEOS6_OS9_, symObjAddr: 0x6094, symBinAddr: 0x100012864, symSize: 0x38 }
  - { offsetInCU: 0x9D9A, offset: 0x2C96A, size: 0x8, addend: 0x0, symName: __ZNSt3__114__rewrap_rangeB8ue170006INS_16reverse_iteratorIPcEES3_S3_EET0_S4_T1_, symObjAddr: 0x60CC, symBinAddr: 0x10001289C, symSize: 0x5C }
  - { offsetInCU: 0x9DEF, offset: 0x2C9BF, size: 0x8, addend: 0x0, symName: __ZNSt3__113__rewrap_iterB8ue170006INS_16reverse_iteratorIPcEES3_NS_18__unwrap_iter_implIS3_Lb0EEEEET_S6_T0_, symObjAddr: 0x6128, symBinAddr: 0x1000128F8, symSize: 0x74 }
  - { offsetInCU: 0x9E94, offset: 0x2CA64, size: 0x8, addend: 0x0, symName: __ZNSt3__1neB8ue170006IPcS1_EEbRKNS_16reverse_iteratorIT_EERKNS2_IT0_EE, symObjAddr: 0x6290, symBinAddr: 0x100012A60, symSize: 0x48 }
  - { offsetInCU: 0x9F4C, offset: 0x2CB1C, size: 0x8, addend: 0x0, symName: __ZNSt3__1miB8ue170006IPKP8KeyboardPS2_EEDTmicldtfp_4baseEcldtfp0_4baseEERKNS_11__wrap_iterIT_EERKNS7_IT0_EE, symObjAddr: 0x6604, symBinAddr: 0x100012DD4, symSize: 0x48 }
  - { offsetInCU: 0x9FCB, offset: 0x2CB9B, size: 0x8, addend: 0x0, symName: __ZNSt3__112construct_atB8ue170006IP8KeyboardJRKS2_EPS2_EEPT_S7_DpOT0_, symObjAddr: 0x6C58, symBinAddr: 0x100013428, symSize: 0x2C }
  - { offsetInCU: 0xA03B, offset: 0x2CC0B, size: 0x8, addend: 0x0, symName: __ZNSt3__113move_backwardB8ue170006IPP8KeyboardS3_EET0_T_S5_S4_, symObjAddr: 0x6C84, symBinAddr: 0x100013454, symSize: 0x40 }
  - { offsetInCU: 0xA095, offset: 0x2CC65, size: 0x8, addend: 0x0, symName: __ZNSt3__115__move_backwardB8ue170006INS_17_ClassicAlgPolicyEPP8KeyboardS4_S4_EENS_4pairIT0_T2_EES6_T1_S7_, symObjAddr: 0x6CC4, symBinAddr: 0x100013494, symSize: 0x44 }
  - { offsetInCU: 0xA101, offset: 0x2CCD1, size: 0x8, addend: 0x0, symName: __ZNSt3__123__dispatch_copy_or_moveB8ue170006INS_17_ClassicAlgPolicyENS_20__move_backward_loopIS1_EENS_23__move_backward_trivialEPP8KeyboardS7_S7_EENS_4pairIT2_T4_EES9_T3_SA_, symObjAddr: 0x6D08, symBinAddr: 0x1000134D8, symSize: 0x44 }
  - { offsetInCU: 0xA17F, offset: 0x2CD4F, size: 0x8, addend: 0x0, symName: __ZNSt3__121__unwrap_and_dispatchB8ue170006INS_10__overloadINS_20__move_backward_loopINS_17_ClassicAlgPolicyEEENS_23__move_backward_trivialEEEPP8KeyboardS9_S9_Li0EEENS_4pairIT0_T2_EESB_T1_SC_, symObjAddr: 0x6D4C, symBinAddr: 0x10001351C, symSize: 0xB4 }
  - { offsetInCU: 0xA20D, offset: 0x2CDDD, size: 0x8, addend: 0x0, symName: __ZNSt3__114__unwrap_rangeB8ue170006IPP8KeyboardS3_EEDaT_T0_, symObjAddr: 0x6E00, symBinAddr: 0x1000135D0, symSize: 0x3C }
  - { offsetInCU: 0xA3D1, offset: 0x2CFA1, size: 0x8, addend: 0x0, symName: __ZNSt3__113__unwrap_iterB8ue170006IPP8KeyboardNS_18__unwrap_iter_implIS3_Lb1EEELi0EEEDTclsrT0_8__unwrapclsr3stdE7declvalIT_EEEES7_, symObjAddr: 0x6E84, symBinAddr: 0x100013654, symSize: 0x24 }
  - { offsetInCU: 0xA415, offset: 0x2CFE5, size: 0x8, addend: 0x0, symName: __ZNSt3__19make_pairB8ue170006IPP8KeyboardS3_EENS_4pairINS_18__unwrap_ref_decayIT_E4typeENS5_IT0_E4typeEEEOS6_OS9_, symObjAddr: 0x6EA8, symBinAddr: 0x100013678, symSize: 0x38 }
  - { offsetInCU: 0xA464, offset: 0x2D034, size: 0x8, addend: 0x0, symName: __ZNSt3__114__rewrap_rangeB8ue170006IPP8KeyboardS3_S3_EET0_S4_T1_, symObjAddr: 0x6EE0, symBinAddr: 0x1000136B0, symSize: 0x2C }
  - { offsetInCU: 0xA4B9, offset: 0x2D089, size: 0x8, addend: 0x0, symName: __ZNSt3__113__rewrap_iterB8ue170006IPP8KeyboardS3_NS_18__unwrap_iter_implIS3_Lb1EEEEET_S6_T0_, symObjAddr: 0x6F0C, symBinAddr: 0x1000136DC, symSize: 0x3C }
  - { offsetInCU: 0xA55E, offset: 0x2D12E, size: 0x8, addend: 0x0, symName: __ZNSt3__128__copy_backward_trivial_implB8ue170006IP8KeyboardS2_EENS_4pairIPT_PT0_EES5_S5_S7_, symObjAddr: 0x7010, symBinAddr: 0x1000137E0, symSize: 0x90 }
  - { offsetInCU: 0xA5C6, offset: 0x2D196, size: 0x8, addend: 0x0, symName: __ZNSt3__119__constexpr_memmoveB8ue170006IP8KeyboardS2_Li0EEEPT_S4_PT0_NS_15__element_countE, symObjAddr: 0x70A0, symBinAddr: 0x100013870, symSize: 0x64 }
  - { offsetInCU: 0xA634, offset: 0x2D204, size: 0x8, addend: 0x0, symName: __ZNSt3__19make_pairB8ue170006IRPP8KeyboardS4_EENS_4pairINS_18__unwrap_ref_decayIT_E4typeENS6_IT0_E4typeEEEOS7_OSA_, symObjAddr: 0x7104, symBinAddr: 0x1000138D4, symSize: 0x38 }
  - { offsetInCU: 0xA6D6, offset: 0x2D2A6, size: 0x8, addend: 0x0, symName: __ZNSt3__14moveB8ue170006IPP8KeyboardS3_EET0_T_S5_S4_, symObjAddr: 0x724C, symBinAddr: 0x100013A1C, symSize: 0x40 }
  - { offsetInCU: 0xA730, offset: 0x2D300, size: 0x8, addend: 0x0, symName: __ZNSt3__16__moveB8ue170006INS_17_ClassicAlgPolicyEPP8KeyboardS4_S4_EENS_4pairIT0_T2_EES6_T1_S7_, symObjAddr: 0x7320, symBinAddr: 0x100013AF0, symSize: 0x44 }
  - { offsetInCU: 0xA79C, offset: 0x2D36C, size: 0x8, addend: 0x0, symName: __ZNSt3__123__dispatch_copy_or_moveB8ue170006INS_17_ClassicAlgPolicyENS_11__move_loopIS1_EENS_14__move_trivialEPP8KeyboardS7_S7_EENS_4pairIT2_T4_EES9_T3_SA_, symObjAddr: 0x7364, symBinAddr: 0x100013B34, symSize: 0x44 }
  - { offsetInCU: 0xA81A, offset: 0x2D3EA, size: 0x8, addend: 0x0, symName: __ZNSt3__121__unwrap_and_dispatchB8ue170006INS_10__overloadINS_11__move_loopINS_17_ClassicAlgPolicyEEENS_14__move_trivialEEEPP8KeyboardS9_S9_Li0EEENS_4pairIT0_T2_EESB_T1_SC_, symObjAddr: 0x73A8, symBinAddr: 0x100013B78, symSize: 0xB4 }
  - { offsetInCU: 0xA8A8, offset: 0x2D478, size: 0x8, addend: 0x0, symName: __ZNSt3__119__copy_trivial_implB8ue170006IP8KeyboardS2_EENS_4pairIPT_PT0_EES5_S5_S7_, symObjAddr: 0x74A4, symBinAddr: 0x100013C74, symSize: 0x80 }
  - { offsetInCU: 0xA910, offset: 0x2D4E0, size: 0x8, addend: 0x0, symName: __ZNSt3__19make_pairB8ue170006IRPP8KeyboardS3_EENS_4pairINS_18__unwrap_ref_decayIT_E4typeENS6_IT0_E4typeEEEOS7_OSA_, symObjAddr: 0x7524, symBinAddr: 0x100013CF4, symSize: 0x38 }
  - { offsetInCU: 0xA95F, offset: 0x2D52F, size: 0x8, addend: 0x0, symName: __ZNSt3__18distanceB8ue170006INS_13move_iteratorIPP8KeyboardEEEENS_15iterator_traitsIT_E15difference_typeES7_S7_, symObjAddr: 0x76A8, symBinAddr: 0x100013E78, symSize: 0x3C }
  - { offsetInCU: 0xA9A2, offset: 0x2D572, size: 0x8, addend: 0x0, symName: __ZNSt3__110__distanceB8ue170006INS_13move_iteratorIPP8KeyboardEEEENS_15iterator_traitsIT_E15difference_typeES7_S7_NS_26random_access_iterator_tagE, symObjAddr: 0x7818, symBinAddr: 0x100013FE8, symSize: 0x30 }
  - { offsetInCU: 0xA9EF, offset: 0x2D5BF, size: 0x8, addend: 0x0, symName: __ZNSt3__1miB8ue170006IPP8KeyboardS3_EEDTmicldtfp_4baseEcldtfp0_4baseEERKNS_13move_iteratorIT_EERKNS5_IT0_EE, symObjAddr: 0x7848, symBinAddr: 0x100014018, symSize: 0x4C }
  - { offsetInCU: 0xAA3E, offset: 0x2D60E, size: 0x8, addend: 0x0, symName: __ZNSt3__142__uninitialized_allocator_move_if_noexceptB8ue170006INS_9allocatorIP8KeyboardEEPS3_S5_S3_vEET1_RT_T0_S9_S6_, symObjAddr: 0x78C8, symBinAddr: 0x100014098, symSize: 0x38 }
  - { offsetInCU: 0xAABA, offset: 0x2D68A, size: 0x8, addend: 0x0, symName: '__ZNSt3__113__upper_boundB8ue170006INS_17_ClassicAlgPolicyEZN8Keyboard14breedOrganismsEPS2_S3_PNS_3mapINS_12basic_stringIcNS_11char_traitsIcEENS_9allocatorIcEEEEdNS_4lessISA_EENS8_INS_4pairIKSA_dEEEEEESI_E3$_1NS_11__wrap_iterIPS3_EESM_S3_NS_10__identityEEET1_SO_T2_RKT3_OT0_OT4_', symObjAddr: 0x7954, symBinAddr: 0x100014124, symSize: 0x10C }
  - { offsetInCU: 0xAB8D, offset: 0x2D75D, size: 0x8, addend: 0x0, symName: __ZNSt3__115__half_positiveB8ue170006IlEENS_9enable_ifIXsr11is_integralIT_EE5valueES2_E4typeES2_, symObjAddr: 0x7A9C, symBinAddr: 0x10001426C, symSize: 0x1C }
  - { offsetInCU: 0xABC2, offset: 0x2D792, size: 0x8, addend: 0x0, symName: '__ZNSt3__18__invokeB8ue170006IRZN8Keyboard14breedOrganismsEPS1_S2_PNS_3mapINS_12basic_stringIcNS_11char_traitsIcEENS_9allocatorIcEEEEdNS_4lessIS9_EENS7_INS_4pairIKS9_dEEEEEESH_E3$_1JRKS2_RS2_EEEDTclclsr3stdE7declvalIT_EEspclsr3stdE7declvalIT0_EEEEOSN_DpOSO_', symObjAddr: 0x7AF8, symBinAddr: 0x1000142C8, symSize: 0x40 }
  - { offsetInCU: 0xAC28, offset: 0x2D7F8, size: 0x8, addend: 0x0, symName: __ZNSt3__18__invokeB8ue170006IRNS_10__identityEJRP8KeyboardEEEDTclclsr3stdE7declvalIT_EEspclsr3stdE7declvalIT0_EEEEOS6_DpOS7_, symObjAddr: 0x7B38, symBinAddr: 0x100014308, symSize: 0x2C }
  - { offsetInCU: 0xAC79, offset: 0x2D849, size: 0x8, addend: 0x0, symName: __ZNSt3__18distanceB8ue170006INS_11__wrap_iterIPP8KeyboardEEEENS_15iterator_traitsIT_E15difference_typeES7_S7_, symObjAddr: 0x7B9C, symBinAddr: 0x10001436C, symSize: 0x3C }
  - { offsetInCU: 0xACBC, offset: 0x2D88C, size: 0x8, addend: 0x0, symName: __ZNSt3__110__distanceB8ue170006INS_11__wrap_iterIPP8KeyboardEEEENS_15iterator_traitsIT_E15difference_typeES7_S7_NS_26random_access_iterator_tagE, symObjAddr: 0x7BD8, symBinAddr: 0x1000143A8, symSize: 0x30 }
  - { offsetInCU: 0xAD09, offset: 0x2D8D9, size: 0x8, addend: 0x0, symName: __ZNSt3__1miB8ue170006IPP8KeyboardS3_EEDTmicldtfp_4baseEcldtfp0_4baseEERKNS_11__wrap_iterIT_EERKNS5_IT0_EE, symObjAddr: 0x7C08, symBinAddr: 0x1000143D8, symSize: 0x48 }
  - { offsetInCU: 0xAD55, offset: 0x2D925, size: 0x8, addend: 0x0, symName: __ZNSt3__14nextB8ue170006INS_11__wrap_iterIPP8KeyboardEEEENS_9enable_ifIXsr29__has_input_iterator_categoryIT_EE5valueES7_E4typeES7_NS_15iterator_traitsIS7_E15difference_typeE, symObjAddr: 0x7C50, symBinAddr: 0x100014420, symSize: 0x3C }
  - { offsetInCU: 0xAD98, offset: 0x2D968, size: 0x8, addend: 0x0, symName: __ZNSt3__19__advanceB8ue170006INS_11__wrap_iterIPP8KeyboardEEEEvRT_NS_15iterator_traitsIS6_E15difference_typeENS_26random_access_iterator_tagE, symObjAddr: 0x7CD8, symBinAddr: 0x100014494, symSize: 0x2C }
  - { offsetInCU: 0xAE0E, offset: 0x2D9DE, size: 0x8, addend: 0x0, symName: '__ZNSt3__113__upper_boundB8ue170006INS_17_ClassicAlgPolicyEZN8Keyboard14breedOrganismsEPS2_S3_PNS_3mapINS_12basic_stringIcNS_11char_traitsIcEENS_9allocatorIcEEEEdNS_4lessISA_EENS8_INS_4pairIKSA_dEEEEEESI_E3$_2NS_11__wrap_iterIPS3_EESM_S3_NS_10__identityEEET1_SO_T2_RKT3_OT0_OT4_', symObjAddr: 0x7DFC, symBinAddr: 0x1000145B8, symSize: 0x10C }
  - { offsetInCU: 0xAEE1, offset: 0x2DAB1, size: 0x8, addend: 0x0, symName: '__ZNSt3__18__invokeB8ue170006IRZN8Keyboard14breedOrganismsEPS1_S2_PNS_3mapINS_12basic_stringIcNS_11char_traitsIcEENS_9allocatorIcEEEEdNS_4lessIS9_EENS7_INS_4pairIKS9_dEEEEEESH_E3$_2JRKS2_RS2_EEEDTclclsr3stdE7declvalIT_EEspclsr3stdE7declvalIT0_EEEEOSN_DpOSO_', symObjAddr: 0x7F08, symBinAddr: 0x1000146C4, symSize: 0x40 }
  - { offsetInCU: 0xAF47, offset: 0x2DB17, size: 0x8, addend: 0x0, symName: __ZNSt3__17shuffleB8ue170006INS_11__wrap_iterIPcEERNS_26linear_congruential_engineIjLj48271ELj0ELj2147483647EEEEEvT_S7_OT0_, symObjAddr: 0x952C, symBinAddr: 0x1000147C8, symSize: 0x48 }
  - { offsetInCU: 0xAF9D, offset: 0x2DB6D, size: 0x8, addend: 0x0, symName: __ZNSt3__15beginB8ue170006INS_6vectorIcNS_9allocatorIcEEEEEEDTcldtfp_5beginEERT_, symObjAddr: 0x9574, symBinAddr: 0x100014810, symSize: 0x2C }
  - { offsetInCU: 0xAFD2, offset: 0x2DBA2, size: 0x8, addend: 0x0, symName: __ZNSt3__13endB8ue170006INS_6vectorIcNS_9allocatorIcEEEEEEDTcldtfp_3endEERT_, symObjAddr: 0x95A0, symBinAddr: 0x10001483C, symSize: 0x2C }
  - { offsetInCU: 0xB007, offset: 0x2DBD7, size: 0x8, addend: 0x0, symName: __ZNSt3__1miB8ue170006IPcS1_EEDTmicldtfp_4baseEcldtfp0_4baseEERKNS_11__wrap_iterIT_EERKNS3_IT0_EE, symObjAddr: 0x9728, symBinAddr: 0x1000149C4, symSize: 0x40 }
  - { offsetInCU: 0xB053, offset: 0x2DC23, size: 0x8, addend: 0x0, symName: __ZNSt3__1ltB8ue170006IPcEEbRKNS_11__wrap_iterIT_EES6_, symObjAddr: 0x97C4, symBinAddr: 0x100014A60, symSize: 0x48 }
  - { offsetInCU: 0xB096, offset: 0x2DC66, size: 0x8, addend: 0x0, symName: __ZNSt3__113__countl_zeroB8ue170006ImEEiT_, symObjAddr: 0x9B44, symBinAddr: 0x100014DE0, symSize: 0x54 }
  - { offsetInCU: 0xB131, offset: 0x2DD01, size: 0x8, addend: 0x0, symName: __ZNSt3__112__libcpp_clzB8ue170006Em, symObjAddr: 0xA0B0, symBinAddr: 0x10001534C, symSize: 0x1C }
  - { offsetInCU: 0xB15D, offset: 0x2DD2D, size: 0x8, addend: 0x0, symName: __ZNSt3__19iter_swapB8ue170006INS_11__wrap_iterIPcEES3_EEvT_T0_, symObjAddr: 0xA0F8, symBinAddr: 0x100015394, symSize: 0x50 }
  - { offsetInCU: 0xB1A5, offset: 0x2DD75, size: 0x8, addend: 0x0, symName: __ZNSt3__14swapB8ue170006IcEENS_9enable_ifIXaasr21is_move_constructibleIT_EE5valuesr18is_move_assignableIS2_EE5valueEvE4typeERS2_S5_, symObjAddr: 0xA148, symBinAddr: 0x1000153E4, symSize: 0x3C }
  - { offsetInCU: 0xB530, offset: 0x2E100, size: 0x8, addend: 0x0, symName: __ZN8Keyboard9keyboardsE, symObjAddr: 0x70FA8, symBinAddr: 0x100020020, symSize: 0x0 }
  - { offsetInCU: 0xBD8B, offset: 0x2E95B, size: 0x8, addend: 0x0, symName: __ZN8Keyboard4tempE, symObjAddr: 0x70FB0, symBinAddr: 0x100020028, symSize: 0x0 }
  - { offsetInCU: 0xBF09, offset: 0x2EAD9, size: 0x8, addend: 0x0, symName: __ZNSt3__16vectorIP8KeyboardNS_9allocatorIS2_EEE26__swap_out_circular_bufferERNS_14__split_bufferIS2_RS4_EE, symObjAddr: 0x3B8C, symBinAddr: 0x100010734, symSize: 0x110 }
  - { offsetInCU: 0xBF64, offset: 0x2EB34, size: 0x8, addend: 0x0, symName: __ZNSt3__16vectorIcNS_9allocatorIcEEE26__swap_out_circular_bufferERNS_14__split_bufferIcRS2_EE, symObjAddr: 0x5648, symBinAddr: 0x100011EEC, symSize: 0x110 }
  - { offsetInCU: 0xBFC5, offset: 0x2EB95, size: 0x8, addend: 0x0, symName: __ZNSt3__16vectorIP8KeyboardNS_9allocatorIS2_EEE26__swap_out_circular_bufferERNS_14__split_bufferIS2_RS4_EEPS2_, symObjAddr: 0x6A7C, symBinAddr: 0x10001324C, symSize: 0x14C }
  - { offsetInCU: 0xC056, offset: 0x2EC26, size: 0x8, addend: 0x0, symName: __ZNSt3__124uniform_int_distributionIlEclINS_26linear_congruential_engineIjLj48271ELj0ELj2147483647EEEEElRT_RKNS1_10param_typeE, symObjAddr: 0x980C, symBinAddr: 0x100014AA8, symSize: 0x174 }
  - { offsetInCU: 0xDFFD, offset: 0x30BCD, size: 0x8, addend: 0x0, symName: __ZNSt3__16vectorIP8KeyboardNS_9allocatorIS2_EEEC1B8ue170006Ev, symObjAddr: 0xA8, symBinAddr: 0x10000D1B0, symSize: 0x2C }
  - { offsetInCU: 0xE027, offset: 0x30BF7, size: 0x8, addend: 0x0, symName: __ZN8KeyboardC2ENSt3__15arrayIcLm24EEE, symObjAddr: 0xD4, symBinAddr: 0x10000D1DC, symSize: 0x2D8 }
  - { offsetInCU: 0xE09A, offset: 0x30C6A, size: 0x8, addend: 0x0, symName: __ZNSt3__16vectorIcNS_9allocatorIcEEE5eraseENS_11__wrap_iterIPKcEES7_, symObjAddr: 0x3AC, symBinAddr: 0x10000D4B4, symSize: 0xD0 }
  - { offsetInCU: 0xE0EF, offset: 0x30CBF, size: 0x8, addend: 0x0, symName: __ZNSt3__16vectorIcNS_9allocatorIcEEE5beginB8ue170006Ev, symObjAddr: 0x580, symBinAddr: 0x10000D688, symSize: 0x30 }
  - { offsetInCU: 0xE117, offset: 0x30CE7, size: 0x8, addend: 0x0, symName: __ZNSt3__16vectorIcNS_9allocatorIcEEE3endB8ue170006Ev, symObjAddr: 0x5B0, symBinAddr: 0x10000D6B8, symSize: 0x30 }
  - { offsetInCU: 0xE14B, offset: 0x30D1B, size: 0x8, addend: 0x0, symName: __ZNSt3__111__wrap_iterIPKcEC1B8ue170006IPcEERKNS0_IT_EEPNS_9enable_ifIXsr14is_convertibleIS6_S2_EE5valueEvE4typeE, symObjAddr: 0x5E0, symBinAddr: 0x10000D6E8, symSize: 0x3C }
  - { offsetInCU: 0xE19C, offset: 0x30D6C, size: 0x8, addend: 0x0, symName: __ZN10Randomizer13shuffleVectorIcEEvPNSt3__16vectorIT_NS1_9allocatorIS3_EEEE, symObjAddr: 0x61C, symBinAddr: 0x10000D724, symSize: 0x48 }
  - { offsetInCU: 0xE1C8, offset: 0x30D98, size: 0x8, addend: 0x0, symName: __ZNKSt3__15arrayIcLm24EE4sizeB8ue170006Ev, symObjAddr: 0x664, symBinAddr: 0x10000D76C, symSize: 0x14 }
  - { offsetInCU: 0xE1EE, offset: 0x30DBE, size: 0x8, addend: 0x0, symName: __ZNSt3__15arrayIcLm24EEixB8ue170006Em, symObjAddr: 0x678, symBinAddr: 0x10000D780, symSize: 0x20 }
  - { offsetInCU: 0xE222, offset: 0x30DF2, size: 0x8, addend: 0x0, symName: __ZNKSt3__111__wrap_iterIPcEdeB8ue170006Ev, symObjAddr: 0x698, symBinAddr: 0x10000D7A0, symSize: 0x18 }
  - { offsetInCU: 0xE248, offset: 0x30E18, size: 0x8, addend: 0x0, symName: __ZNSt3__111__wrap_iterIPcEppB8ue170006Ev, symObjAddr: 0x6B0, symBinAddr: 0x10000D7B8, symSize: 0x20 }
  - { offsetInCU: 0xE26E, offset: 0x30E3E, size: 0x8, addend: 0x0, symName: __ZNSt3__16vectorIcNS_9allocatorIcEEED1B8ue170006Ev, symObjAddr: 0x6D0, symBinAddr: 0x10000D7D8, symSize: 0x2C }
  - { offsetInCU: 0xE298, offset: 0x30E68, size: 0x8, addend: 0x0, symName: __ZN8KeyboardC1ENSt3__15arrayIcLm24EEE, symObjAddr: 0x6FC, symBinAddr: 0x10000D804, symSize: 0x34 }
  - { offsetInCU: 0xE2FE, offset: 0x30ECE, size: 0x8, addend: 0x0, symName: __ZN8Keyboard15getFitnessScoreEPNSt3__13mapINS0_12basic_stringIcNS0_11char_traitsIcEENS0_9allocatorIcEEEEdNS0_4lessIS7_EENS5_INS0_4pairIKS7_dEEEEEESF_, symObjAddr: 0x730, symBinAddr: 0x10000D838, symSize: 0x278 }
  - { offsetInCU: 0xE42A, offset: 0x30FFA, size: 0x8, addend: 0x0, symName: __ZN8Keyboard17getLeftPinkyUsageEPNSt3__13mapINS0_12basic_stringIcNS0_11char_traitsIcEENS0_9allocatorIcEEEEdNS0_4lessIS7_EENS5_INS0_4pairIKS7_dEEEEEE, symObjAddr: 0x9A8, symBinAddr: 0x10000DAB0, symSize: 0x34 }
  - { offsetInCU: 0xE460, offset: 0x31030, size: 0x8, addend: 0x0, symName: __ZN8Keyboard16getLeftRingUsageEPNSt3__13mapINS0_12basic_stringIcNS0_11char_traitsIcEENS0_9allocatorIcEEEEdNS0_4lessIS7_EENS5_INS0_4pairIKS7_dEEEEEE, symObjAddr: 0x9DC, symBinAddr: 0x10000DAE4, symSize: 0x34 }
  - { offsetInCU: 0xE496, offset: 0x31066, size: 0x8, addend: 0x0, symName: __ZN8Keyboard18getLeftMiddleUsageEPNSt3__13mapINS0_12basic_stringIcNS0_11char_traitsIcEENS0_9allocatorIcEEEEdNS0_4lessIS7_EENS5_INS0_4pairIKS7_dEEEEEE, symObjAddr: 0xA10, symBinAddr: 0x10000DB18, symSize: 0x34 }
  - { offsetInCU: 0xE4CC, offset: 0x3109C, size: 0x8, addend: 0x0, symName: __ZN8Keyboard17getLeftIndexUsageEPNSt3__13mapINS0_12basic_stringIcNS0_11char_traitsIcEENS0_9allocatorIcEEEEdNS0_4lessIS7_EENS5_INS0_4pairIKS7_dEEEEEE, symObjAddr: 0xA44, symBinAddr: 0x10000DB4C, symSize: 0x34 }
  - { offsetInCU: 0xE502, offset: 0x310D2, size: 0x8, addend: 0x0, symName: __ZN8Keyboard18getRightPinkyUsageEPNSt3__13mapINS0_12basic_stringIcNS0_11char_traitsIcEENS0_9allocatorIcEEEEdNS0_4lessIS7_EENS5_INS0_4pairIKS7_dEEEEEE, symObjAddr: 0xA78, symBinAddr: 0x10000DB80, symSize: 0x34 }
  - { offsetInCU: 0xE538, offset: 0x31108, size: 0x8, addend: 0x0, symName: __ZN8Keyboard17getRightRingUsageEPNSt3__13mapINS0_12basic_stringIcNS0_11char_traitsIcEENS0_9allocatorIcEEEEdNS0_4lessIS7_EENS5_INS0_4pairIKS7_dEEEEEE, symObjAddr: 0xAAC, symBinAddr: 0x10000DBB4, symSize: 0x34 }
  - { offsetInCU: 0xE56E, offset: 0x3113E, size: 0x8, addend: 0x0, symName: __ZN8Keyboard19getRightMiddleUsageEPNSt3__13mapINS0_12basic_stringIcNS0_11char_traitsIcEENS0_9allocatorIcEEEEdNS0_4lessIS7_EENS5_INS0_4pairIKS7_dEEEEEE, symObjAddr: 0xAE0, symBinAddr: 0x10000DBE8, symSize: 0x34 }
  - { offsetInCU: 0xE5A4, offset: 0x31174, size: 0x8, addend: 0x0, symName: __ZN8Keyboard18getRightIndexUsageEPNSt3__13mapINS0_12basic_stringIcNS0_11char_traitsIcEENS0_9allocatorIcEEEEdNS0_4lessIS7_EENS5_INS0_4pairIKS7_dEEEEEE, symObjAddr: 0xB14, symBinAddr: 0x10000DC1C, symSize: 0x34 }
  - { offsetInCU: 0xE5DA, offset: 0x311AA, size: 0x8, addend: 0x0, symName: __ZN8Keyboard21getLeftPinkyVerticalsEPNSt3__13mapINS0_12basic_stringIcNS0_11char_traitsIcEENS0_9allocatorIcEEEEdNS0_4lessIS7_EENS5_INS0_4pairIKS7_dEEEEEE, symObjAddr: 0xB48, symBinAddr: 0x10000DC50, symSize: 0x34 }
  - { offsetInCU: 0xE610, offset: 0x311E0, size: 0x8, addend: 0x0, symName: __ZN8Keyboard20getLeftRingVerticalsEPNSt3__13mapINS0_12basic_stringIcNS0_11char_traitsIcEENS0_9allocatorIcEEEEdNS0_4lessIS7_EENS5_INS0_4pairIKS7_dEEEEEE, symObjAddr: 0xB7C, symBinAddr: 0x10000DC84, symSize: 0x34 }
  - { offsetInCU: 0xE646, offset: 0x31216, size: 0x8, addend: 0x0, symName: __ZN8Keyboard22getLeftMiddleVerticalsEPNSt3__13mapINS0_12basic_stringIcNS0_11char_traitsIcEENS0_9allocatorIcEEEEdNS0_4lessIS7_EENS5_INS0_4pairIKS7_dEEEEEE, symObjAddr: 0xBB0, symBinAddr: 0x10000DCB8, symSize: 0x34 }
  - { offsetInCU: 0xE67C, offset: 0x3124C, size: 0x8, addend: 0x0, symName: __ZN8Keyboard21getLeftIndexVerticalsEPNSt3__13mapINS0_12basic_stringIcNS0_11char_traitsIcEENS0_9allocatorIcEEEEdNS0_4lessIS7_EENS5_INS0_4pairIKS7_dEEEEEE, symObjAddr: 0xBE4, symBinAddr: 0x10000DCEC, symSize: 0x34 }
  - { offsetInCU: 0xE6B2, offset: 0x31282, size: 0x8, addend: 0x0, symName: __ZN8Keyboard22getRightPinkyVerticalsEPNSt3__13mapINS0_12basic_stringIcNS0_11char_traitsIcEENS0_9allocatorIcEEEEdNS0_4lessIS7_EENS5_INS0_4pairIKS7_dEEEEEE, symObjAddr: 0xC18, symBinAddr: 0x10000DD20, symSize: 0x34 }
  - { offsetInCU: 0xE6E8, offset: 0x312B8, size: 0x8, addend: 0x0, symName: __ZN8Keyboard21getRightRingVerticalsEPNSt3__13mapINS0_12basic_stringIcNS0_11char_traitsIcEENS0_9allocatorIcEEEEdNS0_4lessIS7_EENS5_INS0_4pairIKS7_dEEEEEE, symObjAddr: 0xC4C, symBinAddr: 0x10000DD54, symSize: 0x34 }
  - { offsetInCU: 0xE720, offset: 0x312F0, size: 0x8, addend: 0x0, symName: __ZN8Keyboard23getRightMiddleVerticalsEPNSt3__13mapINS0_12basic_stringIcNS0_11char_traitsIcEENS0_9allocatorIcEEEEdNS0_4lessIS7_EENS5_INS0_4pairIKS7_dEEEEEE, symObjAddr: 0xC80, symBinAddr: 0x10000DD88, symSize: 0x34 }
  - { offsetInCU: 0xE758, offset: 0x31328, size: 0x8, addend: 0x0, symName: __ZN8Keyboard22getRightIndexVerticalsEPNSt3__13mapINS0_12basic_stringIcNS0_11char_traitsIcEENS0_9allocatorIcEEEEdNS0_4lessIS7_EENS5_INS0_4pairIKS7_dEEEEEE, symObjAddr: 0xCB4, symBinAddr: 0x10000DDBC, symSize: 0x34 }
  - { offsetInCU: 0xE790, offset: 0x31360, size: 0x8, addend: 0x0, symName: __ZN8Keyboard8populateEi, symObjAddr: 0xCE8, symBinAddr: 0x10000DDF0, symSize: 0x1D4 }
  - { offsetInCU: 0xE7DD, offset: 0x313AD, size: 0x8, addend: 0x0, symName: __ZNSt3__16vectorIP8KeyboardNS_9allocatorIS2_EEE12emplace_backIJS2_EEERS2_DpOT_, symObjAddr: 0xEBC, symBinAddr: 0x10000DFC4, symSize: 0x74 }
  - { offsetInCU: 0xE81F, offset: 0x313EF, size: 0x8, addend: 0x0, symName: __ZN8Keyboard15breedGenerationEPNSt3__13mapINS0_12basic_stringIcNS0_11char_traitsIcEENS0_9allocatorIcEEEEdNS0_4lessIS7_EENS5_INS0_4pairIKS7_dEEEEEESF_, symObjAddr: 0xF30, symBinAddr: 0x10000E038, symSize: 0xE8 }
  - { offsetInCU: 0xE898, offset: 0x31468, size: 0x8, addend: 0x0, symName: __ZNKSt3__16vectorIP8KeyboardNS_9allocatorIS2_EEE4sizeB8ue170006Ev, symObjAddr: 0x1018, symBinAddr: 0x10000E120, symSize: 0x28 }
  - { offsetInCU: 0xE8BE, offset: 0x3148E, size: 0x8, addend: 0x0, symName: __ZNSt3__16vectorIP8KeyboardNS_9allocatorIS2_EEEixB8ue170006Em, symObjAddr: 0x1040, symBinAddr: 0x10000E148, symSize: 0x24 }
  - { offsetInCU: 0xE8F5, offset: 0x314C5, size: 0x8, addend: 0x0, symName: __ZN8Keyboard14breedOrganismsEPS_S0_PNSt3__13mapINS1_12basic_stringIcNS1_11char_traitsIcEENS1_9allocatorIcEEEEdNS1_4lessIS8_EENS6_INS1_4pairIKS8_dEEEEEESG_, symObjAddr: 0x1064, symBinAddr: 0x10000E16C, symSize: 0x2CC }
  - { offsetInCU: 0xEA22, offset: 0x315F2, size: 0x8, addend: 0x0, symName: __ZNSt3__16vectorIcNS_9allocatorIcEEEC1B8ue170006Ev, symObjAddr: 0x1330, symBinAddr: 0x10000E438, symSize: 0x2C }
  - { offsetInCU: 0xEA4C, offset: 0x3161C, size: 0x8, addend: 0x0, symName: __ZNSt3__16vectorIcNS_9allocatorIcEEE12emplace_backIJRcEEES5_DpOT_, symObjAddr: 0x135C, symBinAddr: 0x10000E464, symSize: 0x74 }
  - { offsetInCU: 0xEA8E, offset: 0x3165E, size: 0x8, addend: 0x0, symName: __ZNKSt3__16vectorIcNS_9allocatorIcEEE4sizeB8ue170006Ev, symObjAddr: 0x13D0, symBinAddr: 0x10000E4D8, symSize: 0x20 }
  - { offsetInCU: 0xEAB4, offset: 0x31684, size: 0x8, addend: 0x0, symName: __ZN8Keyboard13swapCharacterEic, symObjAddr: 0x13F0, symBinAddr: 0x10000E4F8, symSize: 0xDC }
  - { offsetInCU: 0xEB30, offset: 0x31700, size: 0x8, addend: 0x0, symName: __ZNSt3__16vectorIcNS_9allocatorIcEEEixB8ue170006Em, symObjAddr: 0x14CC, symBinAddr: 0x10000E5D4, symSize: 0x24 }
  - { offsetInCU: 0xEB67, offset: 0x31737, size: 0x8, addend: 0x0, symName: __ZNSt3__16vectorIP8KeyboardNS_9allocatorIS2_EEE6insertENS_11__wrap_iterIPKS2_EERS7_, symObjAddr: 0x14F0, symBinAddr: 0x10000E5F8, symSize: 0x1FC }
  - { offsetInCU: 0xEBFE, offset: 0x317CE, size: 0x8, addend: 0x0, symName: __ZNSt3__16vectorIP8KeyboardNS_9allocatorIS2_EEE5beginB8ue170006Ev, symObjAddr: 0x174C, symBinAddr: 0x10000E854, symSize: 0x30 }
  - { offsetInCU: 0xEC26, offset: 0x317F6, size: 0x8, addend: 0x0, symName: __ZNSt3__16vectorIP8KeyboardNS_9allocatorIS2_EEE3endB8ue170006Ev, symObjAddr: 0x177C, symBinAddr: 0x10000E884, symSize: 0x30 }
  - { offsetInCU: 0xEC54, offset: 0x31824, size: 0x8, addend: 0x0, symName: __ZNSt3__111__wrap_iterIPKP8KeyboardEC1B8ue170006IPS2_EERKNS0_IT_EEPNS_9enable_ifIXsr14is_convertibleIS8_S4_EE5valueEvE4typeE, symObjAddr: 0x17AC, symBinAddr: 0x10000E8B4, symSize: 0x3C }
  - { offsetInCU: 0xEC9F, offset: 0x3186F, size: 0x8, addend: 0x0, symName: __ZN8Keyboard14getFingerUsageEPNSt3__13mapINS0_12basic_stringIcNS0_11char_traitsIcEENS0_9allocatorIcEEEEdNS0_4lessIS7_EENS5_INS0_4pairIKS7_dEEEEEEPi, symObjAddr: 0x1848, symBinAddr: 0x10000E950, symSize: 0x154 }
  - { offsetInCU: 0xED0E, offset: 0x318DE, size: 0x8, addend: 0x0, symName: __ZN8Keyboard18getFingerVerticalsEPNSt3__13mapINS0_12basic_stringIcNS0_11char_traitsIcEENS0_9allocatorIcEEEEdNS0_4lessIS7_EENS5_INS0_4pairIKS7_dEEEEEEPi, symObjAddr: 0x1A58, symBinAddr: 0x10000EAA4, symSize: 0x1E8 }
  - { offsetInCU: 0xEDAB, offset: 0x3197B, size: 0x8, addend: 0x0, symName: __ZN8Keyboard5printEv, symObjAddr: 0x1DF4, symBinAddr: 0x10000EC8C, symSize: 0x1A0 }
  - { offsetInCU: 0xEE1B, offset: 0x319EB, size: 0x8, addend: 0x0, symName: __ZNSt3__112basic_stringIcNS_11char_traitsIcEENS_9allocatorIcEEEpLB8ue170006EPKc, symObjAddr: 0x1FC8, symBinAddr: 0x10000EE2C, symSize: 0x2C }
  - { offsetInCU: 0xEE50, offset: 0x31A20, size: 0x8, addend: 0x0, symName: __ZNSt3__112basic_stringIcNS_11char_traitsIcEENS_9allocatorIcEEEpLB8ue170006ERKS5_, symObjAddr: 0x1FF4, symBinAddr: 0x10000EE58, symSize: 0x2C }
  - { offsetInCU: 0xEE85, offset: 0x31A55, size: 0x8, addend: 0x0, symName: __ZN8Keyboard16printFingerUsageEPNSt3__13mapINS0_12basic_stringIcNS0_11char_traitsIcEENS0_9allocatorIcEEEEdNS0_4lessIS7_EENS5_INS0_4pairIKS7_dEEEEEE, symObjAddr: 0x20B4, symBinAddr: 0x10000EE84, symSize: 0x238 }
  - { offsetInCU: 0xEF44, offset: 0x31B14, size: 0x8, addend: 0x0, symName: __ZN8Keyboard20printFingerVerticalsEPNSt3__13mapINS0_12basic_stringIcNS0_11char_traitsIcEENS0_9allocatorIcEEEEdNS0_4lessIS7_EENS5_INS0_4pairIKS7_dEEEEEE, symObjAddr: 0x22EC, symBinAddr: 0x10000F0BC, symSize: 0x2A8 }
  - { offsetInCU: 0xF005, offset: 0x31BD5, size: 0x8, addend: 0x0, symName: __ZNSt3__16vectorIP8KeyboardNS_9allocatorIS2_EEEC2B8ue170006Ev, symObjAddr: 0x2594, symBinAddr: 0x10000F364, symSize: 0x4C }
  - { offsetInCU: 0xF03B, offset: 0x31C0B, size: 0x8, addend: 0x0, symName: __ZNSt3__117__compressed_pairIPP8KeyboardNS_9allocatorIS2_EEEC1B8ue170006IDnNS_18__default_init_tagEEEOT_OT0_, symObjAddr: 0x25E0, symBinAddr: 0x10000F3B0, symSize: 0x3C }
  - { offsetInCU: 0xF093, offset: 0x31C63, size: 0x8, addend: 0x0, symName: __ZNSt3__117__compressed_pairIPP8KeyboardNS_9allocatorIS2_EEEC2B8ue170006IDnNS_18__default_init_tagEEEOT_OT0_, symObjAddr: 0x2628, symBinAddr: 0x10000F3EC, symSize: 0x40 }
  - { offsetInCU: 0xF0EB, offset: 0x31CBB, size: 0x8, addend: 0x0, symName: __ZNSt3__122__compressed_pair_elemIPP8KeyboardLi0ELb0EEC2B8ue170006IDnvEEOT_, symObjAddr: 0x2668, symBinAddr: 0x10000F42C, symSize: 0x1C }
  - { offsetInCU: 0xF12D, offset: 0x31CFD, size: 0x8, addend: 0x0, symName: __ZNSt3__122__compressed_pair_elemINS_9allocatorIP8KeyboardEELi1ELb1EEC2B8ue170006ENS_18__default_init_tagE, symObjAddr: 0x2684, symBinAddr: 0x10000F448, symSize: 0x2C }
  - { offsetInCU: 0xF161, offset: 0x31D31, size: 0x8, addend: 0x0, symName: __ZNSt3__19allocatorIP8KeyboardEC2B8ue170006Ev, symObjAddr: 0x26B0, symBinAddr: 0x10000F474, symSize: 0x2C }
  - { offsetInCU: 0xF18B, offset: 0x31D5B, size: 0x8, addend: 0x0, symName: __ZNSt3__116__non_trivial_ifILb1ENS_9allocatorIP8KeyboardEEEC2B8ue170006Ev, symObjAddr: 0x26DC, symBinAddr: 0x10000F4A0, symSize: 0x14 }
  - { offsetInCU: 0xF1B5, offset: 0x31D85, size: 0x8, addend: 0x0, symName: __ZNSt3__16vectorIcNS_9allocatorIcEEE17__destruct_at_endB8ue170006EPc, symObjAddr: 0x2764, symBinAddr: 0x10000F528, symSize: 0x4C }
  - { offsetInCU: 0xF1F9, offset: 0x31DC9, size: 0x8, addend: 0x0, symName: __ZNSt3__16vectorIcNS_9allocatorIcEEE11__make_iterB8ue170006EPc, symObjAddr: 0x2830, symBinAddr: 0x10000F5F4, symSize: 0x30 }
  - { offsetInCU: 0xF22E, offset: 0x31DFE, size: 0x8, addend: 0x0, symName: __ZNKSt3__111__wrap_iterIPKcE4baseB8ue170006Ev, symObjAddr: 0x2860, symBinAddr: 0x10000F624, symSize: 0x18 }
  - { offsetInCU: 0xF254, offset: 0x31E24, size: 0x8, addend: 0x0, symName: __ZNKSt3__111__wrap_iterIPcE4baseB8ue170006Ev, symObjAddr: 0x2878, symBinAddr: 0x10000F63C, symSize: 0x18 }
  - { offsetInCU: 0xF27A, offset: 0x31E4A, size: 0x8, addend: 0x0, symName: __ZNSt3__16vectorIcNS_9allocatorIcEEE22__base_destruct_at_endB8ue170006EPc, symObjAddr: 0x28D8, symBinAddr: 0x10000F69C, symSize: 0x8C }
  - { offsetInCU: 0xF2BE, offset: 0x31E8E, size: 0x8, addend: 0x0, symName: __ZNKSt3__16vectorIcNS_9allocatorIcEEE17__annotate_shrinkB8ue170006Em, symObjAddr: 0x2964, symBinAddr: 0x10000F728, symSize: 0xB4 }
  - { offsetInCU: 0xF2F3, offset: 0x31EC3, size: 0x8, addend: 0x0, symName: __ZNSt3__116allocator_traitsINS_9allocatorIcEEE7destroyB8ue170006IcvvEEvRS2_PT_, symObjAddr: 0x2A18, symBinAddr: 0x10000F7DC, symSize: 0x28 }
  - { offsetInCU: 0xF32D, offset: 0x31EFD, size: 0x8, addend: 0x0, symName: __ZNSt3__16vectorIcNS_9allocatorIcEEE7__allocB8ue170006Ev, symObjAddr: 0x2A40, symBinAddr: 0x10000F804, symSize: 0x28 }
  - { offsetInCU: 0xF353, offset: 0x31F23, size: 0x8, addend: 0x0, symName: __ZNSt3__117__compressed_pairIPcNS_9allocatorIcEEE6secondB8ue170006Ev, symObjAddr: 0x2AB0, symBinAddr: 0x10000F860, symSize: 0x24 }
  - { offsetInCU: 0xF379, offset: 0x31F49, size: 0x8, addend: 0x0, symName: __ZNKSt3__16vectorIcNS_9allocatorIcEEE31__annotate_contiguous_containerB8ue170006EPKvS5_S5_S5_, symObjAddr: 0x2AE8, symBinAddr: 0x10000F884, symSize: 0x20 }
  - { offsetInCU: 0xF3CB, offset: 0x31F9B, size: 0x8, addend: 0x0, symName: __ZNKSt3__16vectorIcNS_9allocatorIcEEE4dataB8ue170006Ev, symObjAddr: 0x2B08, symBinAddr: 0x10000F8A4, symSize: 0x28 }
  - { offsetInCU: 0xF3F1, offset: 0x31FC1, size: 0x8, addend: 0x0, symName: __ZNKSt3__16vectorIcNS_9allocatorIcEEE8capacityB8ue170006Ev, symObjAddr: 0x2B30, symBinAddr: 0x10000F8CC, symSize: 0x38 }
  - { offsetInCU: 0xF417, offset: 0x31FE7, size: 0x8, addend: 0x0, symName: __ZNKSt3__16vectorIcNS_9allocatorIcEEE9__end_capB8ue170006Ev, symObjAddr: 0x2B68, symBinAddr: 0x10000F904, symSize: 0x28 }
  - { offsetInCU: 0xF43D, offset: 0x3200D, size: 0x8, addend: 0x0, symName: __ZNKSt3__117__compressed_pairIPcNS_9allocatorIcEEE5firstB8ue170006Ev, symObjAddr: 0x2B90, symBinAddr: 0x10000F92C, symSize: 0x24 }
  - { offsetInCU: 0xF463, offset: 0x32033, size: 0x8, addend: 0x0, symName: __ZNKSt3__122__compressed_pair_elemIPcLi0ELb0EE5__getB8ue170006Ev, symObjAddr: 0x2BB4, symBinAddr: 0x10000F950, symSize: 0x14 }
  - { offsetInCU: 0xF4B3, offset: 0x32083, size: 0x8, addend: 0x0, symName: __ZNKSt3__114__move_trivialclB8ue170006IccLi0EEENS_4pairIPT_PT0_EES4_S4_S6_, symObjAddr: 0x2D40, symBinAddr: 0x10000FADC, symSize: 0x48 }
  - { offsetInCU: 0xF51B, offset: 0x320EB, size: 0x8, addend: 0x0, symName: __ZNSt3__119__unwrap_range_implIPcS1_E8__unwrapB8ue170006ES1_S1_, symObjAddr: 0x2E4C, symBinAddr: 0x10000FB88, symSize: 0x58 }
  - { offsetInCU: 0xF552, offset: 0x32122, size: 0x8, addend: 0x0, symName: __ZNSt3__14pairIPcS1_EC1B8ue170006IS1_S1_LPv0EEEOT_OT0_, symObjAddr: 0x2EA4, symBinAddr: 0x10000FBE0, symSize: 0x3C }
  - { offsetInCU: 0xF5B0, offset: 0x32180, size: 0x8, addend: 0x0, symName: __ZNSt3__14pairIPcS1_EC2B8ue170006IS1_S1_LPv0EEEOT_OT0_, symObjAddr: 0x2EE0, symBinAddr: 0x10000FC1C, symSize: 0x34 }
  - { offsetInCU: 0xF60E, offset: 0x321DE, size: 0x8, addend: 0x0, symName: __ZNSt3__14pairIPcS1_EC1B8ue170006IRS1_S1_LPv0EEEOT_OT0_, symObjAddr: 0x3028, symBinAddr: 0x10000FD64, symSize: 0x3C }
  - { offsetInCU: 0xF66C, offset: 0x3223C, size: 0x8, addend: 0x0, symName: __ZNSt3__14pairIPcS1_EC2B8ue170006IRS1_S1_LPv0EEEOT_OT0_, symObjAddr: 0x3064, symBinAddr: 0x10000FDA0, symSize: 0x34 }
  - { offsetInCU: 0xF6CA, offset: 0x3229A, size: 0x8, addend: 0x0, symName: __ZNSt3__119__unwrap_range_implIPcS1_E8__rewrapB8ue170006ES1_S1_, symObjAddr: 0x30BC, symBinAddr: 0x10000FDD4, symSize: 0x2C }
  - { offsetInCU: 0xF6FB, offset: 0x322CB, size: 0x8, addend: 0x0, symName: __ZNSt3__111__wrap_iterIPcEC1B8ue170006ES1_, symObjAddr: 0x3130, symBinAddr: 0x10000FE00, symSize: 0x34 }
  - { offsetInCU: 0xF733, offset: 0x32303, size: 0x8, addend: 0x0, symName: __ZNSt3__111__wrap_iterIPcEC2B8ue170006ES1_, symObjAddr: 0x3164, symBinAddr: 0x10000FE34, symSize: 0x20 }
  - { offsetInCU: 0xF777, offset: 0x32347, size: 0x8, addend: 0x0, symName: '__ZZN8KeyboardC1ENSt3__15arrayIcLm24EEEENK3$_0clEc', symObjAddr: 0x323C, symBinAddr: 0x10000FF0C, symSize: 0xAC }
  - { offsetInCU: 0xF7D9, offset: 0x323A9, size: 0x8, addend: 0x0, symName: __ZNSt3__111__wrap_iterIPKcEC2B8ue170006IPcEERKNS0_IT_EEPNS_9enable_ifIXsr14is_convertibleIS6_S2_EE5valueEvE4typeE, symObjAddr: 0x3330, symBinAddr: 0x100010000, symSize: 0x40 }
  - { offsetInCU: 0xF824, offset: 0x323F4, size: 0x8, addend: 0x0, symName: __ZNSt3__16vectorIcNS_9allocatorIcEEED2B8ue170006Ev, symObjAddr: 0x3370, symBinAddr: 0x100010040, symSize: 0x44 }
  - { offsetInCU: 0xF84E, offset: 0x3241E, size: 0x8, addend: 0x0, symName: __ZNSt3__16vectorIcNS_9allocatorIcEEE16__destroy_vectorC1B8ue170006ERS3_, symObjAddr: 0x33B4, symBinAddr: 0x100010084, symSize: 0x34 }
  - { offsetInCU: 0xF887, offset: 0x32457, size: 0x8, addend: 0x0, symName: __ZNSt3__16vectorIcNS_9allocatorIcEEE16__destroy_vectorclB8ue170006Ev, symObjAddr: 0x33E8, symBinAddr: 0x1000100B8, symSize: 0x90 }
  - { offsetInCU: 0xF8AD, offset: 0x3247D, size: 0x8, addend: 0x0, symName: __ZNSt3__16vectorIcNS_9allocatorIcEEE16__destroy_vectorC2B8ue170006ERS3_, symObjAddr: 0x3478, symBinAddr: 0x100010148, symSize: 0x20 }
  - { offsetInCU: 0xF8E6, offset: 0x324B6, size: 0x8, addend: 0x0, symName: __ZNSt3__16vectorIcNS_9allocatorIcEEE7__clearB8ue170006Ev, symObjAddr: 0x3498, symBinAddr: 0x100010168, symSize: 0x28 }
  - { offsetInCU: 0xF90C, offset: 0x324DC, size: 0x8, addend: 0x0, symName: __ZNKSt3__16vectorIcNS_9allocatorIcEEE17__annotate_deleteB8ue170006Ev, symObjAddr: 0x34C0, symBinAddr: 0x100010190, symSize: 0xB8 }
  - { offsetInCU: 0xF932, offset: 0x32502, size: 0x8, addend: 0x0, symName: __ZNSt3__116allocator_traitsINS_9allocatorIcEEE10deallocateB8ue170006ERS2_Pcm, symObjAddr: 0x3578, symBinAddr: 0x100010248, symSize: 0x34 }
  - { offsetInCU: 0xF974, offset: 0x32544, size: 0x8, addend: 0x0, symName: __ZNSt3__19allocatorIcE10deallocateB8ue170006EPcm, symObjAddr: 0x35AC, symBinAddr: 0x10001027C, symSize: 0x40 }
  - { offsetInCU: 0xF9B6, offset: 0x32586, size: 0x8, addend: 0x0, symName: __ZNSt3__16vectorIP8KeyboardNS_9allocatorIS2_EEE9__end_capB8ue170006Ev, symObjAddr: 0x3714, symBinAddr: 0x1000102BC, symSize: 0x28 }
  - { offsetInCU: 0xF9DC, offset: 0x325AC, size: 0x8, addend: 0x0, symName: __ZNSt3__16vectorIP8KeyboardNS_9allocatorIS2_EEE22__construct_one_at_endB8ue170006IJS2_EEEvDpOT_, symObjAddr: 0x373C, symBinAddr: 0x1000102E4, symSize: 0x90 }
  - { offsetInCU: 0xFA2B, offset: 0x325FB, size: 0x8, addend: 0x0, symName: __ZNSt3__16vectorIP8KeyboardNS_9allocatorIS2_EEE24__emplace_back_slow_pathIJS2_EEEvDpOT_, symObjAddr: 0x37CC, symBinAddr: 0x100010374, symSize: 0xD8 }
  - { offsetInCU: 0xFA8B, offset: 0x3265B, size: 0x8, addend: 0x0, symName: __ZNSt3__16vectorIP8KeyboardNS_9allocatorIS2_EEE4backB8ue170006Ev, symObjAddr: 0x38A4, symBinAddr: 0x10001044C, symSize: 0x1C }
  - { offsetInCU: 0xFAB1, offset: 0x32681, size: 0x8, addend: 0x0, symName: __ZNSt3__117__compressed_pairIPP8KeyboardNS_9allocatorIS2_EEE5firstB8ue170006Ev, symObjAddr: 0x38C0, symBinAddr: 0x100010468, symSize: 0x24 }
  - { offsetInCU: 0xFAD7, offset: 0x326A7, size: 0x8, addend: 0x0, symName: __ZNSt3__122__compressed_pair_elemIPP8KeyboardLi0ELb0EE5__getB8ue170006Ev, symObjAddr: 0x38E4, symBinAddr: 0x10001048C, symSize: 0x14 }
  - { offsetInCU: 0xFB1B, offset: 0x326EB, size: 0x8, addend: 0x0, symName: __ZNSt3__16vectorIP8KeyboardNS_9allocatorIS2_EEE21_ConstructTransactionC1B8ue170006ERS5_m, symObjAddr: 0x38F8, symBinAddr: 0x1000104A0, symSize: 0x3C }
  - { offsetInCU: 0xFB63, offset: 0x32733, size: 0x8, addend: 0x0, symName: __ZNSt3__116allocator_traitsINS_9allocatorIP8KeyboardEEE9constructB8ue170006IS3_JS3_EvvEEvRS4_PT_DpOT0_, symObjAddr: 0x3934, symBinAddr: 0x1000104DC, symSize: 0x30 }
  - { offsetInCU: 0xFBB7, offset: 0x32787, size: 0x8, addend: 0x0, symName: __ZNSt3__16vectorIP8KeyboardNS_9allocatorIS2_EEE7__allocB8ue170006Ev, symObjAddr: 0x3964, symBinAddr: 0x10001050C, symSize: 0x28 }
  - { offsetInCU: 0xFBDD, offset: 0x327AD, size: 0x8, addend: 0x0, symName: __ZNSt3__16vectorIP8KeyboardNS_9allocatorIS2_EEE21_ConstructTransactionD1B8ue170006Ev, symObjAddr: 0x39A0, symBinAddr: 0x100010548, symSize: 0x2C }
  - { offsetInCU: 0xFC07, offset: 0x327D7, size: 0x8, addend: 0x0, symName: __ZNSt3__16vectorIP8KeyboardNS_9allocatorIS2_EEE21_ConstructTransactionC2B8ue170006ERS5_m, symObjAddr: 0x39CC, symBinAddr: 0x100010574, symSize: 0x44 }
  - { offsetInCU: 0xFC4F, offset: 0x3281F, size: 0x8, addend: 0x0, symName: __ZNSt3__117__compressed_pairIPP8KeyboardNS_9allocatorIS2_EEE6secondB8ue170006Ev, symObjAddr: 0x3A3C, symBinAddr: 0x1000105E4, symSize: 0x24 }
  - { offsetInCU: 0xFC75, offset: 0x32845, size: 0x8, addend: 0x0, symName: __ZNSt3__122__compressed_pair_elemINS_9allocatorIP8KeyboardEELi1ELb1EE5__getB8ue170006Ev, symObjAddr: 0x3A60, symBinAddr: 0x100010608, symSize: 0x14 }
  - { offsetInCU: 0xFC9B, offset: 0x3286B, size: 0x8, addend: 0x0, symName: __ZNSt3__16vectorIP8KeyboardNS_9allocatorIS2_EEE21_ConstructTransactionD2B8ue170006Ev, symObjAddr: 0x3A74, symBinAddr: 0x10001061C, symSize: 0x20 }
  - { offsetInCU: 0xFCC5, offset: 0x32895, size: 0x8, addend: 0x0, symName: __ZNKSt3__16vectorIP8KeyboardNS_9allocatorIS2_EEE11__recommendB8ue170006Em, symObjAddr: 0x3A94, symBinAddr: 0x10001063C, symSize: 0xB4 }
  - { offsetInCU: 0xFD1A, offset: 0x328EA, size: 0x8, addend: 0x0, symName: __ZNSt3__114__split_bufferIP8KeyboardRNS_9allocatorIS2_EEEC1EmmS5_, symObjAddr: 0x3B48, symBinAddr: 0x1000106F0, symSize: 0x44 }
  - { offsetInCU: 0xFD70, offset: 0x32940, size: 0x8, addend: 0x0, symName: __ZNSt3__114__split_bufferIP8KeyboardRNS_9allocatorIS2_EEED1Ev, symObjAddr: 0x3C9C, symBinAddr: 0x100010844, symSize: 0x2C }
  - { offsetInCU: 0xFD9C, offset: 0x3296C, size: 0x8, addend: 0x0, symName: __ZNKSt3__16vectorIP8KeyboardNS_9allocatorIS2_EEE8max_sizeEv, symObjAddr: 0x3CC8, symBinAddr: 0x100010870, symSize: 0x60 }
  - { offsetInCU: 0xFDC4, offset: 0x32994, size: 0x8, addend: 0x0, symName: __ZNKSt3__16vectorIP8KeyboardNS_9allocatorIS2_EEE20__throw_length_errorB8ue170006Ev, symObjAddr: 0x3D28, symBinAddr: 0x1000108D0, symSize: 0x1C }
  - { offsetInCU: 0xFDEA, offset: 0x329BA, size: 0x8, addend: 0x0, symName: __ZNKSt3__16vectorIP8KeyboardNS_9allocatorIS2_EEE8capacityB8ue170006Ev, symObjAddr: 0x3D44, symBinAddr: 0x1000108EC, symSize: 0x40 }
  - { offsetInCU: 0xFE1C, offset: 0x329EC, size: 0x8, addend: 0x0, symName: __ZNSt3__116allocator_traitsINS_9allocatorIP8KeyboardEEE8max_sizeB8ue170006IS4_vvEEmRKS4_, symObjAddr: 0x3DDC, symBinAddr: 0x100010958, symSize: 0x28 }
  - { offsetInCU: 0xFE47, offset: 0x32A17, size: 0x8, addend: 0x0, symName: __ZNKSt3__16vectorIP8KeyboardNS_9allocatorIS2_EEE7__allocB8ue170006Ev, symObjAddr: 0x3E04, symBinAddr: 0x100010980, symSize: 0x28 }
  - { offsetInCU: 0xFE6D, offset: 0x32A3D, size: 0x8, addend: 0x0, symName: __ZNSt3__114numeric_limitsIlE3maxB8ue170006Ev, symObjAddr: 0x3E2C, symBinAddr: 0x1000109A8, symSize: 0x14 }
  - { offsetInCU: 0xFE81, offset: 0x32A51, size: 0x8, addend: 0x0, symName: __ZNKSt3__117__compressed_pairIPP8KeyboardNS_9allocatorIS2_EEE6secondB8ue170006Ev, symObjAddr: 0x3EE4, symBinAddr: 0x1000109BC, symSize: 0x24 }
  - { offsetInCU: 0xFEA7, offset: 0x32A77, size: 0x8, addend: 0x0, symName: __ZNKSt3__122__compressed_pair_elemINS_9allocatorIP8KeyboardEELi1ELb1EE5__getB8ue170006Ev, symObjAddr: 0x3F08, symBinAddr: 0x1000109E0, symSize: 0x14 }
  - { offsetInCU: 0xFECD, offset: 0x32A9D, size: 0x8, addend: 0x0, symName: __ZNSt3__123__libcpp_numeric_limitsIlLb1EE3maxB8ue170006Ev, symObjAddr: 0x3F1C, symBinAddr: 0x1000109F4, symSize: 0x8 }
  - { offsetInCU: 0xFEE1, offset: 0x32AB1, size: 0x8, addend: 0x0, symName: __ZNKSt3__16vectorIP8KeyboardNS_9allocatorIS2_EEE9__end_capB8ue170006Ev, symObjAddr: 0x4008, symBinAddr: 0x1000109FC, symSize: 0x28 }
  - { offsetInCU: 0xFF07, offset: 0x32AD7, size: 0x8, addend: 0x0, symName: __ZNKSt3__117__compressed_pairIPP8KeyboardNS_9allocatorIS2_EEE5firstB8ue170006Ev, symObjAddr: 0x4030, symBinAddr: 0x100010A24, symSize: 0x24 }
  - { offsetInCU: 0xFF2D, offset: 0x32AFD, size: 0x8, addend: 0x0, symName: __ZNKSt3__122__compressed_pair_elemIPP8KeyboardLi0ELb0EE5__getB8ue170006Ev, symObjAddr: 0x4054, symBinAddr: 0x100010A48, symSize: 0x14 }
  - { offsetInCU: 0xFF53, offset: 0x32B23, size: 0x8, addend: 0x0, symName: __ZNSt3__114__split_bufferIP8KeyboardRNS_9allocatorIS2_EEEC2EmmS5_, symObjAddr: 0x40BC, symBinAddr: 0x100010AB0, symSize: 0xD4 }
  - { offsetInCU: 0xFFC6, offset: 0x32B96, size: 0x8, addend: 0x0, symName: __ZNSt3__117__compressed_pairIPP8KeyboardRNS_9allocatorIS2_EEEC1B8ue170006IDnS6_EEOT_OT0_, symObjAddr: 0x4190, symBinAddr: 0x100010B84, symSize: 0x3C }
  - { offsetInCU: 0x1001E, offset: 0x32BEE, size: 0x8, addend: 0x0, symName: __ZNSt3__114__split_bufferIP8KeyboardRNS_9allocatorIS2_EEE7__allocB8ue170006Ev, symObjAddr: 0x420C, symBinAddr: 0x100010C00, symSize: 0x28 }
  - { offsetInCU: 0x10044, offset: 0x32C14, size: 0x8, addend: 0x0, symName: __ZNSt3__114__split_bufferIP8KeyboardRNS_9allocatorIS2_EEE9__end_capB8ue170006Ev, symObjAddr: 0x4234, symBinAddr: 0x100010C28, symSize: 0x28 }
  - { offsetInCU: 0x1006A, offset: 0x32C3A, size: 0x8, addend: 0x0, symName: __ZNSt3__117__compressed_pairIPP8KeyboardRNS_9allocatorIS2_EEEC2B8ue170006IDnS6_EEOT_OT0_, symObjAddr: 0x425C, symBinAddr: 0x100010C50, symSize: 0x48 }
  - { offsetInCU: 0x100C2, offset: 0x32C92, size: 0x8, addend: 0x0, symName: __ZNSt3__122__compressed_pair_elemIRNS_9allocatorIP8KeyboardEELi1ELb0EEC2B8ue170006IS5_vEEOT_, symObjAddr: 0x42A4, symBinAddr: 0x100010C98, symSize: 0x20 }
  - { offsetInCU: 0x10104, offset: 0x32CD4, size: 0x8, addend: 0x0, symName: __ZNSt3__19allocatorIP8KeyboardE8allocateB8ue170006Em, symObjAddr: 0x42C4, symBinAddr: 0x100010CB8, symSize: 0x58 }
  - { offsetInCU: 0x10138, offset: 0x32D08, size: 0x8, addend: 0x0, symName: __ZNSt3__117__compressed_pairIPP8KeyboardRNS_9allocatorIS2_EEE6secondB8ue170006Ev, symObjAddr: 0x4400, symBinAddr: 0x100010D10, symSize: 0x28 }
  - { offsetInCU: 0x1015E, offset: 0x32D2E, size: 0x8, addend: 0x0, symName: __ZNSt3__122__compressed_pair_elemIRNS_9allocatorIP8KeyboardEELi1ELb0EE5__getB8ue170006Ev, symObjAddr: 0x4428, symBinAddr: 0x100010D38, symSize: 0x18 }
  - { offsetInCU: 0x10184, offset: 0x32D54, size: 0x8, addend: 0x0, symName: __ZNSt3__117__compressed_pairIPP8KeyboardRNS_9allocatorIS2_EEE5firstB8ue170006Ev, symObjAddr: 0x4440, symBinAddr: 0x100010D50, symSize: 0x24 }
  - { offsetInCU: 0x101AA, offset: 0x32D7A, size: 0x8, addend: 0x0, symName: __ZNKSt3__16vectorIP8KeyboardNS_9allocatorIS2_EEE17__annotate_deleteB8ue170006Ev, symObjAddr: 0x4464, symBinAddr: 0x100010D74, symSize: 0xB8 }
  - { offsetInCU: 0x101D0, offset: 0x32DA0, size: 0x8, addend: 0x0, symName: __ZNSt3__116reverse_iteratorIPP8KeyboardEC1B8ue170006ES3_, symObjAddr: 0x4594, symBinAddr: 0x100010EA4, symSize: 0x34 }
  - { offsetInCU: 0x10208, offset: 0x32DD8, size: 0x8, addend: 0x0, symName: __ZNKSt3__116reverse_iteratorIPP8KeyboardE4baseB8ue170006Ev, symObjAddr: 0x45C8, symBinAddr: 0x100010ED8, symSize: 0x18 }
  - { offsetInCU: 0x1022E, offset: 0x32DFE, size: 0x8, addend: 0x0, symName: __ZNKSt3__16vectorIP8KeyboardNS_9allocatorIS2_EEE14__annotate_newB8ue170006Em, symObjAddr: 0x461C, symBinAddr: 0x100010F2C, symSize: 0xAC }
  - { offsetInCU: 0x10263, offset: 0x32E33, size: 0x8, addend: 0x0, symName: __ZNKSt3__16vectorIP8KeyboardNS_9allocatorIS2_EEE31__annotate_contiguous_containerB8ue170006EPKvS7_S7_S7_, symObjAddr: 0x46C8, symBinAddr: 0x100010FD8, symSize: 0x20 }
  - { offsetInCU: 0x102B5, offset: 0x32E85, size: 0x8, addend: 0x0, symName: __ZNKSt3__16vectorIP8KeyboardNS_9allocatorIS2_EEE4dataB8ue170006Ev, symObjAddr: 0x46E8, symBinAddr: 0x100010FF8, symSize: 0x28 }
  - { offsetInCU: 0x10305, offset: 0x32ED5, size: 0x8, addend: 0x0, symName: __ZNKSt3__111__move_loopINS_17_ClassicAlgPolicyEEclB8ue170006INS_16reverse_iteratorIPP8KeyboardEES8_S8_EENS_4pairIT_T1_EESA_T0_SB_, symObjAddr: 0x49C8, symBinAddr: 0x1000112D8, symSize: 0xA0 }
  - { offsetInCU: 0x10370, offset: 0x32F40, size: 0x8, addend: 0x0, symName: __ZNSt3__119__unwrap_range_implINS_16reverse_iteratorIPP8KeyboardEES5_E8__unwrapB8ue170006ES5_S5_, symObjAddr: 0x4BB4, symBinAddr: 0x1000114C4, symSize: 0x84 }
  - { offsetInCU: 0x103A7, offset: 0x32F77, size: 0x8, addend: 0x0, symName: __ZNSt3__14pairINS_16reverse_iteratorIPP8KeyboardEES5_EC1B8ue170006IS5_S5_LPv0EEEOT_OT0_, symObjAddr: 0x4C38, symBinAddr: 0x100011548, symSize: 0x3C }
  - { offsetInCU: 0x10405, offset: 0x32FD5, size: 0x8, addend: 0x0, symName: __ZNSt3__14pairINS_16reverse_iteratorIPP8KeyboardEES5_EC2B8ue170006IS5_S5_LPv0EEEOT_OT0_, symObjAddr: 0x4C74, symBinAddr: 0x100011584, symSize: 0x34 }
  - { offsetInCU: 0x10463, offset: 0x33033, size: 0x8, addend: 0x0, symName: __ZNSt3__18_IterOpsINS_17_ClassicAlgPolicyEE11__iter_moveB8ue170006IRNS_16reverse_iteratorIPP8KeyboardEEEENS_9enable_ifIXsr12is_referenceIDTdeclsr3stdE7declvalIRT_EEEEE5valueEDTclsr3stdE4movedeclsr3stdE7declvalISC_EEEEE4typeEOSB_, symObjAddr: 0x4CF0, symBinAddr: 0x100011600, symSize: 0x28 }
  - { offsetInCU: 0x1048F, offset: 0x3305F, size: 0x8, addend: 0x0, symName: __ZNKSt3__116reverse_iteratorIPP8KeyboardEdeB8ue170006Ev, symObjAddr: 0x4D18, symBinAddr: 0x100011628, symSize: 0x28 }
  - { offsetInCU: 0x104C3, offset: 0x33093, size: 0x8, addend: 0x0, symName: __ZNSt3__116reverse_iteratorIPP8KeyboardEppB8ue170006Ev, symObjAddr: 0x4D40, symBinAddr: 0x100011650, symSize: 0x20 }
  - { offsetInCU: 0x104E9, offset: 0x330B9, size: 0x8, addend: 0x0, symName: __ZNSt3__18_IterOpsINS_17_ClassicAlgPolicyEE25__validate_iter_referenceB8ue170006IRNS_16reverse_iteratorIPP8KeyboardEEEEvv, symObjAddr: 0x4D60, symBinAddr: 0x100011670, symSize: 0x4 }
  - { offsetInCU: 0x10507, offset: 0x330D7, size: 0x8, addend: 0x0, symName: __ZNSt3__118__unwrap_iter_implINS_16reverse_iteratorIPP8KeyboardEELb0EE8__unwrapB8ue170006ES5_, symObjAddr: 0x4D64, symBinAddr: 0x100011674, symSize: 0x24 }
  - { offsetInCU: 0x1052A, offset: 0x330FA, size: 0x8, addend: 0x0, symName: __ZNSt3__119__unwrap_range_implINS_16reverse_iteratorIPP8KeyboardEES5_E8__rewrapB8ue170006ES5_S5_, symObjAddr: 0x4D88, symBinAddr: 0x100011698, symSize: 0x5C }
  - { offsetInCU: 0x1055B, offset: 0x3312B, size: 0x8, addend: 0x0, symName: __ZNSt3__118__unwrap_iter_implINS_16reverse_iteratorIPP8KeyboardEELb0EE8__rewrapB8ue170006ES5_S5_, symObjAddr: 0x4DE4, symBinAddr: 0x1000116F4, symSize: 0x2C }
  - { offsetInCU: 0x10588, offset: 0x33158, size: 0x8, addend: 0x0, symName: __ZNSt3__116reverse_iteratorIPP8KeyboardEC2B8ue170006ES3_, symObjAddr: 0x4E10, symBinAddr: 0x100011720, symSize: 0x28 }
  - { offsetInCU: 0x105C0, offset: 0x33190, size: 0x8, addend: 0x0, symName: __ZNSt3__114__split_bufferIP8KeyboardRNS_9allocatorIS2_EEED2Ev, symObjAddr: 0x4E38, symBinAddr: 0x100011748, symSize: 0x8C }
  - { offsetInCU: 0x105EC, offset: 0x331BC, size: 0x8, addend: 0x0, symName: __ZNSt3__114__split_bufferIP8KeyboardRNS_9allocatorIS2_EEE5clearB8ue170006Ev, symObjAddr: 0x4EC4, symBinAddr: 0x1000117D4, symSize: 0x28 }
  - { offsetInCU: 0x10612, offset: 0x331E2, size: 0x8, addend: 0x0, symName: __ZNSt3__116allocator_traitsINS_9allocatorIP8KeyboardEEE10deallocateB8ue170006ERS4_PS3_m, symObjAddr: 0x4EEC, symBinAddr: 0x1000117FC, symSize: 0x34 }
  - { offsetInCU: 0x10654, offset: 0x33224, size: 0x8, addend: 0x0, symName: __ZNKSt3__114__split_bufferIP8KeyboardRNS_9allocatorIS2_EEE8capacityB8ue170006Ev, symObjAddr: 0x4F20, symBinAddr: 0x100011830, symSize: 0x40 }
  - { offsetInCU: 0x1067A, offset: 0x3324A, size: 0x8, addend: 0x0, symName: __ZNSt3__114__split_bufferIP8KeyboardRNS_9allocatorIS2_EEE17__destruct_at_endB8ue170006EPS2_, symObjAddr: 0x4F60, symBinAddr: 0x100011870, symSize: 0x2C }
  - { offsetInCU: 0x106AE, offset: 0x3327E, size: 0x8, addend: 0x0, symName: __ZNSt3__114__split_bufferIP8KeyboardRNS_9allocatorIS2_EEE17__destruct_at_endB8ue170006EPS2_NS_17integral_constantIbLb0EEE, symObjAddr: 0x4F8C, symBinAddr: 0x10001189C, symSize: 0x80 }
  - { offsetInCU: 0x106EE, offset: 0x332BE, size: 0x8, addend: 0x0, symName: __ZNSt3__116allocator_traitsINS_9allocatorIP8KeyboardEEE7destroyB8ue170006IS3_vvEEvRS4_PT_, symObjAddr: 0x500C, symBinAddr: 0x10001191C, symSize: 0x28 }
  - { offsetInCU: 0x10728, offset: 0x332F8, size: 0x8, addend: 0x0, symName: __ZNSt3__19allocatorIP8KeyboardE10deallocateB8ue170006EPS2_m, symObjAddr: 0x5068, symBinAddr: 0x100011978, symSize: 0x40 }
  - { offsetInCU: 0x1076A, offset: 0x3333A, size: 0x8, addend: 0x0, symName: __ZNKSt3__114__split_bufferIP8KeyboardRNS_9allocatorIS2_EEE9__end_capB8ue170006Ev, symObjAddr: 0x50A8, symBinAddr: 0x1000119B8, symSize: 0x28 }
  - { offsetInCU: 0x10790, offset: 0x33360, size: 0x8, addend: 0x0, symName: __ZNKSt3__117__compressed_pairIPP8KeyboardRNS_9allocatorIS2_EEE5firstB8ue170006Ev, symObjAddr: 0x50D0, symBinAddr: 0x1000119E0, symSize: 0x24 }
  - { offsetInCU: 0x107B6, offset: 0x33386, size: 0x8, addend: 0x0, symName: __ZNSt3__16vectorIcNS_9allocatorIcEEEC2B8ue170006Ev, symObjAddr: 0x50F4, symBinAddr: 0x100011A04, symSize: 0x4C }
  - { offsetInCU: 0x107E0, offset: 0x333B0, size: 0x8, addend: 0x0, symName: __ZNSt3__117__compressed_pairIPcNS_9allocatorIcEEEC1B8ue170006IDnNS_18__default_init_tagEEEOT_OT0_, symObjAddr: 0x5140, symBinAddr: 0x100011A50, symSize: 0x3C }
  - { offsetInCU: 0x10838, offset: 0x33408, size: 0x8, addend: 0x0, symName: __ZNSt3__117__compressed_pairIPcNS_9allocatorIcEEEC2B8ue170006IDnNS_18__default_init_tagEEEOT_OT0_, symObjAddr: 0x517C, symBinAddr: 0x100011A8C, symSize: 0x40 }
  - { offsetInCU: 0x10890, offset: 0x33460, size: 0x8, addend: 0x0, symName: __ZNSt3__122__compressed_pair_elemIPcLi0ELb0EEC2B8ue170006IDnvEEOT_, symObjAddr: 0x51BC, symBinAddr: 0x100011ACC, symSize: 0x1C }
  - { offsetInCU: 0x108D2, offset: 0x334A2, size: 0x8, addend: 0x0, symName: __ZNSt3__16vectorIcNS_9allocatorIcEEE9__end_capB8ue170006Ev, symObjAddr: 0x5244, symBinAddr: 0x100011AE8, symSize: 0x28 }
  - { offsetInCU: 0x108F8, offset: 0x334C8, size: 0x8, addend: 0x0, symName: __ZNSt3__16vectorIcNS_9allocatorIcEEE22__construct_one_at_endB8ue170006IJRcEEEvDpOT_, symObjAddr: 0x526C, symBinAddr: 0x100011B10, symSize: 0x90 }
  - { offsetInCU: 0x10947, offset: 0x33517, size: 0x8, addend: 0x0, symName: __ZNSt3__16vectorIcNS_9allocatorIcEEE24__emplace_back_slow_pathIJRcEEEvDpOT_, symObjAddr: 0x52FC, symBinAddr: 0x100011BA0, symSize: 0xD8 }
  - { offsetInCU: 0x109A7, offset: 0x33577, size: 0x8, addend: 0x0, symName: __ZNSt3__16vectorIcNS_9allocatorIcEEE4backB8ue170006Ev, symObjAddr: 0x53D4, symBinAddr: 0x100011C78, symSize: 0x1C }
  - { offsetInCU: 0x109CD, offset: 0x3359D, size: 0x8, addend: 0x0, symName: __ZNSt3__117__compressed_pairIPcNS_9allocatorIcEEE5firstB8ue170006Ev, symObjAddr: 0x53F0, symBinAddr: 0x100011C94, symSize: 0x24 }
  - { offsetInCU: 0x109F3, offset: 0x335C3, size: 0x8, addend: 0x0, symName: __ZNSt3__122__compressed_pair_elemIPcLi0ELb0EE5__getB8ue170006Ev, symObjAddr: 0x5414, symBinAddr: 0x100011CB8, symSize: 0x14 }
  - { offsetInCU: 0x10A37, offset: 0x33607, size: 0x8, addend: 0x0, symName: __ZNSt3__16vectorIcNS_9allocatorIcEEE21_ConstructTransactionC1B8ue170006ERS3_m, symObjAddr: 0x5428, symBinAddr: 0x100011CCC, symSize: 0x3C }
  - { offsetInCU: 0x10A7F, offset: 0x3364F, size: 0x8, addend: 0x0, symName: __ZNSt3__116allocator_traitsINS_9allocatorIcEEE9constructB8ue170006IcJRcEvvEEvRS2_PT_DpOT0_, symObjAddr: 0x5464, symBinAddr: 0x100011D08, symSize: 0x30 }
  - { offsetInCU: 0x10AD3, offset: 0x336A3, size: 0x8, addend: 0x0, symName: __ZNSt3__16vectorIcNS_9allocatorIcEEE21_ConstructTransactionD1B8ue170006Ev, symObjAddr: 0x5494, symBinAddr: 0x100011D38, symSize: 0x2C }
  - { offsetInCU: 0x10AFD, offset: 0x336CD, size: 0x8, addend: 0x0, symName: __ZNSt3__16vectorIcNS_9allocatorIcEEE21_ConstructTransactionC2B8ue170006ERS3_m, symObjAddr: 0x54C0, symBinAddr: 0x100011D64, symSize: 0x44 }
  - { offsetInCU: 0x10B45, offset: 0x33715, size: 0x8, addend: 0x0, symName: __ZNSt3__16vectorIcNS_9allocatorIcEEE21_ConstructTransactionD2B8ue170006Ev, symObjAddr: 0x5530, symBinAddr: 0x100011DD4, symSize: 0x20 }
  - { offsetInCU: 0x10B6F, offset: 0x3373F, size: 0x8, addend: 0x0, symName: __ZNKSt3__16vectorIcNS_9allocatorIcEEE11__recommendB8ue170006Em, symObjAddr: 0x5550, symBinAddr: 0x100011DF4, symSize: 0xB4 }
  - { offsetInCU: 0x10BC4, offset: 0x33794, size: 0x8, addend: 0x0, symName: __ZNSt3__114__split_bufferIcRNS_9allocatorIcEEEC1EmmS3_, symObjAddr: 0x5604, symBinAddr: 0x100011EA8, symSize: 0x44 }
  - { offsetInCU: 0x10C1A, offset: 0x337EA, size: 0x8, addend: 0x0, symName: __ZNSt3__114__split_bufferIcRNS_9allocatorIcEEED1Ev, symObjAddr: 0x5758, symBinAddr: 0x100011FFC, symSize: 0x2C }
  - { offsetInCU: 0x10C46, offset: 0x33816, size: 0x8, addend: 0x0, symName: __ZNKSt3__16vectorIcNS_9allocatorIcEEE8max_sizeEv, symObjAddr: 0x5784, symBinAddr: 0x100012028, symSize: 0x60 }
  - { offsetInCU: 0x10C6E, offset: 0x3383E, size: 0x8, addend: 0x0, symName: __ZNKSt3__16vectorIcNS_9allocatorIcEEE20__throw_length_errorB8ue170006Ev, symObjAddr: 0x57E4, symBinAddr: 0x100012088, symSize: 0x1C }
  - { offsetInCU: 0x10CA0, offset: 0x33870, size: 0x8, addend: 0x0, symName: __ZNKSt3__16vectorIcNS_9allocatorIcEEE7__allocB8ue170006Ev, symObjAddr: 0x5828, symBinAddr: 0x1000120A4, symSize: 0x28 }
  - { offsetInCU: 0x10CC6, offset: 0x33896, size: 0x8, addend: 0x0, symName: __ZNKSt3__117__compressed_pairIPcNS_9allocatorIcEEE6secondB8ue170006Ev, symObjAddr: 0x5850, symBinAddr: 0x1000120CC, symSize: 0x24 }
  - { offsetInCU: 0x10CEC, offset: 0x338BC, size: 0x8, addend: 0x0, symName: __ZNSt3__114__split_bufferIcRNS_9allocatorIcEEEC2EmmS3_, symObjAddr: 0x5888, symBinAddr: 0x1000120F0, symSize: 0xD4 }
  - { offsetInCU: 0x10D5F, offset: 0x3392F, size: 0x8, addend: 0x0, symName: __ZNSt3__117__compressed_pairIPcRNS_9allocatorIcEEEC1B8ue170006IDnS4_EEOT_OT0_, symObjAddr: 0x595C, symBinAddr: 0x1000121C4, symSize: 0x3C }
  - { offsetInCU: 0x10DB7, offset: 0x33987, size: 0x8, addend: 0x0, symName: __ZNSt3__114__split_bufferIcRNS_9allocatorIcEEE7__allocB8ue170006Ev, symObjAddr: 0x59D8, symBinAddr: 0x100012200, symSize: 0x28 }
  - { offsetInCU: 0x10DDD, offset: 0x339AD, size: 0x8, addend: 0x0, symName: __ZNSt3__114__split_bufferIcRNS_9allocatorIcEEE9__end_capB8ue170006Ev, symObjAddr: 0x5A00, symBinAddr: 0x100012228, symSize: 0x28 }
  - { offsetInCU: 0x10E03, offset: 0x339D3, size: 0x8, addend: 0x0, symName: __ZNSt3__117__compressed_pairIPcRNS_9allocatorIcEEEC2B8ue170006IDnS4_EEOT_OT0_, symObjAddr: 0x5A28, symBinAddr: 0x100012250, symSize: 0x48 }
  - { offsetInCU: 0x10E5B, offset: 0x33A2B, size: 0x8, addend: 0x0, symName: __ZNSt3__122__compressed_pair_elemIRNS_9allocatorIcEELi1ELb0EEC2B8ue170006IS3_vEEOT_, symObjAddr: 0x5A70, symBinAddr: 0x100012298, symSize: 0x20 }
  - { offsetInCU: 0x10E9D, offset: 0x33A6D, size: 0x8, addend: 0x0, symName: __ZNSt3__117__compressed_pairIPcRNS_9allocatorIcEEE6secondB8ue170006Ev, symObjAddr: 0x5AE8, symBinAddr: 0x1000122B8, symSize: 0x28 }
  - { offsetInCU: 0x10EC3, offset: 0x33A93, size: 0x8, addend: 0x0, symName: __ZNSt3__122__compressed_pair_elemIRNS_9allocatorIcEELi1ELb0EE5__getB8ue170006Ev, symObjAddr: 0x5B10, symBinAddr: 0x1000122E0, symSize: 0x18 }
  - { offsetInCU: 0x10EE9, offset: 0x33AB9, size: 0x8, addend: 0x0, symName: __ZNSt3__117__compressed_pairIPcRNS_9allocatorIcEEE5firstB8ue170006Ev, symObjAddr: 0x5B28, symBinAddr: 0x1000122F8, symSize: 0x24 }
  - { offsetInCU: 0x10F0F, offset: 0x33ADF, size: 0x8, addend: 0x0, symName: __ZNSt3__116reverse_iteratorIPcEC1B8ue170006ES1_, symObjAddr: 0x5BC4, symBinAddr: 0x100012394, symSize: 0x34 }
  - { offsetInCU: 0x10F47, offset: 0x33B17, size: 0x8, addend: 0x0, symName: __ZNKSt3__116reverse_iteratorIPcE4baseB8ue170006Ev, symObjAddr: 0x5BF8, symBinAddr: 0x1000123C8, symSize: 0x18 }
  - { offsetInCU: 0x10F6D, offset: 0x33B3D, size: 0x8, addend: 0x0, symName: __ZNKSt3__16vectorIcNS_9allocatorIcEEE14__annotate_newB8ue170006Em, symObjAddr: 0x5C4C, symBinAddr: 0x10001241C, symSize: 0xAC }
  - { offsetInCU: 0x10FC0, offset: 0x33B90, size: 0x8, addend: 0x0, symName: __ZNKSt3__111__move_loopINS_17_ClassicAlgPolicyEEclB8ue170006INS_16reverse_iteratorIPcEES6_S6_EENS_4pairIT_T1_EES8_T0_S9_, symObjAddr: 0x5FB0, symBinAddr: 0x100012780, symSize: 0xA0 }
  - { offsetInCU: 0x1102B, offset: 0x33BFB, size: 0x8, addend: 0x0, symName: __ZNSt3__119__unwrap_range_implINS_16reverse_iteratorIPcEES3_E8__unwrapB8ue170006ES3_S3_, symObjAddr: 0x619C, symBinAddr: 0x10001296C, symSize: 0x84 }
  - { offsetInCU: 0x11062, offset: 0x33C32, size: 0x8, addend: 0x0, symName: __ZNSt3__14pairINS_16reverse_iteratorIPcEES3_EC1B8ue170006IS3_S3_LPv0EEEOT_OT0_, symObjAddr: 0x6220, symBinAddr: 0x1000129F0, symSize: 0x3C }
  - { offsetInCU: 0x110C0, offset: 0x33C90, size: 0x8, addend: 0x0, symName: __ZNSt3__14pairINS_16reverse_iteratorIPcEES3_EC2B8ue170006IS3_S3_LPv0EEEOT_OT0_, symObjAddr: 0x625C, symBinAddr: 0x100012A2C, symSize: 0x34 }
  - { offsetInCU: 0x11124, offset: 0x33CF4, size: 0x8, addend: 0x0, symName: __ZNSt3__18_IterOpsINS_17_ClassicAlgPolicyEE11__iter_moveB8ue170006IRNS_16reverse_iteratorIPcEEEENS_9enable_ifIXsr12is_referenceIDTdeclsr3stdE7declvalIRT_EEEEE5valueEDTclsr3stdE4movedeclsr3stdE7declvalISA_EEEEE4typeEOS9_, symObjAddr: 0x62D8, symBinAddr: 0x100012AA8, symSize: 0x28 }
  - { offsetInCU: 0x11150, offset: 0x33D20, size: 0x8, addend: 0x0, symName: __ZNKSt3__116reverse_iteratorIPcEdeB8ue170006Ev, symObjAddr: 0x6300, symBinAddr: 0x100012AD0, symSize: 0x28 }
  - { offsetInCU: 0x11184, offset: 0x33D54, size: 0x8, addend: 0x0, symName: __ZNSt3__116reverse_iteratorIPcEppB8ue170006Ev, symObjAddr: 0x6328, symBinAddr: 0x100012AF8, symSize: 0x20 }
  - { offsetInCU: 0x111AA, offset: 0x33D7A, size: 0x8, addend: 0x0, symName: __ZNSt3__18_IterOpsINS_17_ClassicAlgPolicyEE25__validate_iter_referenceB8ue170006IRNS_16reverse_iteratorIPcEEEEvv, symObjAddr: 0x6348, symBinAddr: 0x100012B18, symSize: 0x4 }
  - { offsetInCU: 0x111C8, offset: 0x33D98, size: 0x8, addend: 0x0, symName: __ZNSt3__118__unwrap_iter_implINS_16reverse_iteratorIPcEELb0EE8__unwrapB8ue170006ES3_, symObjAddr: 0x634C, symBinAddr: 0x100012B1C, symSize: 0x24 }
  - { offsetInCU: 0x111EB, offset: 0x33DBB, size: 0x8, addend: 0x0, symName: __ZNSt3__119__unwrap_range_implINS_16reverse_iteratorIPcEES3_E8__rewrapB8ue170006ES3_S3_, symObjAddr: 0x6370, symBinAddr: 0x100012B40, symSize: 0x5C }
  - { offsetInCU: 0x1121C, offset: 0x33DEC, size: 0x8, addend: 0x0, symName: __ZNSt3__118__unwrap_iter_implINS_16reverse_iteratorIPcEELb0EE8__rewrapB8ue170006ES3_S3_, symObjAddr: 0x63CC, symBinAddr: 0x100012B9C, symSize: 0x2C }
  - { offsetInCU: 0x11249, offset: 0x33E19, size: 0x8, addend: 0x0, symName: __ZNSt3__116reverse_iteratorIPcEC2B8ue170006ES1_, symObjAddr: 0x63F8, symBinAddr: 0x100012BC8, symSize: 0x28 }
  - { offsetInCU: 0x11281, offset: 0x33E51, size: 0x8, addend: 0x0, symName: __ZNSt3__114__split_bufferIcRNS_9allocatorIcEEED2Ev, symObjAddr: 0x6420, symBinAddr: 0x100012BF0, symSize: 0x8C }
  - { offsetInCU: 0x112AD, offset: 0x33E7D, size: 0x8, addend: 0x0, symName: __ZNSt3__114__split_bufferIcRNS_9allocatorIcEEE5clearB8ue170006Ev, symObjAddr: 0x64AC, symBinAddr: 0x100012C7C, symSize: 0x28 }
  - { offsetInCU: 0x112D3, offset: 0x33EA3, size: 0x8, addend: 0x0, symName: __ZNKSt3__114__split_bufferIcRNS_9allocatorIcEEE8capacityB8ue170006Ev, symObjAddr: 0x64D4, symBinAddr: 0x100012CA4, symSize: 0x38 }
  - { offsetInCU: 0x112F9, offset: 0x33EC9, size: 0x8, addend: 0x0, symName: __ZNSt3__114__split_bufferIcRNS_9allocatorIcEEE17__destruct_at_endB8ue170006EPc, symObjAddr: 0x650C, symBinAddr: 0x100012CDC, symSize: 0x2C }
  - { offsetInCU: 0x1132D, offset: 0x33EFD, size: 0x8, addend: 0x0, symName: __ZNSt3__114__split_bufferIcRNS_9allocatorIcEEE17__destruct_at_endB8ue170006EPcNS_17integral_constantIbLb0EEE, symObjAddr: 0x6538, symBinAddr: 0x100012D08, symSize: 0x80 }
  - { offsetInCU: 0x1136D, offset: 0x33F3D, size: 0x8, addend: 0x0, symName: __ZNKSt3__114__split_bufferIcRNS_9allocatorIcEEE9__end_capB8ue170006Ev, symObjAddr: 0x65B8, symBinAddr: 0x100012D88, symSize: 0x28 }
  - { offsetInCU: 0x11393, offset: 0x33F63, size: 0x8, addend: 0x0, symName: __ZNKSt3__117__compressed_pairIPcRNS_9allocatorIcEEE5firstB8ue170006Ev, symObjAddr: 0x65E0, symBinAddr: 0x100012DB0, symSize: 0x24 }
  - { offsetInCU: 0x113B9, offset: 0x33F89, size: 0x8, addend: 0x0, symName: __ZNSt3__16vectorIP8KeyboardNS_9allocatorIS2_EEE22__construct_one_at_endB8ue170006IJRKS2_EEEvDpOT_, symObjAddr: 0x664C, symBinAddr: 0x100012E1C, symSize: 0x90 }
  - { offsetInCU: 0x11408, offset: 0x33FD8, size: 0x8, addend: 0x0, symName: __ZNSt3__16vectorIP8KeyboardNS_9allocatorIS2_EEE12__move_rangeEPS2_S6_S6_, symObjAddr: 0x66DC, symBinAddr: 0x100012EAC, symSize: 0x12C }
  - { offsetInCU: 0x114C4, offset: 0x34094, size: 0x8, addend: 0x0, symName: __ZNSt3__114pointer_traitsIPKP8KeyboardE10pointer_toB8ue170006ERS3_, symObjAddr: 0x6808, symBinAddr: 0x100012FD8, symSize: 0x14 }
  - { offsetInCU: 0x114E7, offset: 0x340B7, size: 0x8, addend: 0x0, symName: __ZNSt3__114__split_bufferIP8KeyboardRNS_9allocatorIS2_EEE9push_backB8ue170006ERKS2_, symObjAddr: 0x681C, symBinAddr: 0x100012FEC, symSize: 0x260 }
  - { offsetInCU: 0x1155F, offset: 0x3412F, size: 0x8, addend: 0x0, symName: __ZNSt3__16vectorIP8KeyboardNS_9allocatorIS2_EEE11__make_iterB8ue170006EPS2_, symObjAddr: 0x6BC8, symBinAddr: 0x100013398, symSize: 0x30 }
  - { offsetInCU: 0x11594, offset: 0x34164, size: 0x8, addend: 0x0, symName: __ZNKSt3__111__wrap_iterIPKP8KeyboardE4baseB8ue170006Ev, symObjAddr: 0x6BF8, symBinAddr: 0x1000133C8, symSize: 0x18 }
  - { offsetInCU: 0x115BA, offset: 0x3418A, size: 0x8, addend: 0x0, symName: __ZNKSt3__111__wrap_iterIPP8KeyboardE4baseB8ue170006Ev, symObjAddr: 0x6C10, symBinAddr: 0x1000133E0, symSize: 0x18 }
  - { offsetInCU: 0x115E0, offset: 0x341B0, size: 0x8, addend: 0x0, symName: __ZNSt3__116allocator_traitsINS_9allocatorIP8KeyboardEEE9constructB8ue170006IS3_JRKS3_EvvEEvRS4_PT_DpOT0_, symObjAddr: 0x6C28, symBinAddr: 0x1000133F8, symSize: 0x30 }
  - { offsetInCU: 0x1165E, offset: 0x3422E, size: 0x8, addend: 0x0, symName: __ZNKSt3__123__move_backward_trivialclB8ue170006IP8KeyboardS3_Li0EEENS_4pairIPT_PT0_EES6_S6_S8_, symObjAddr: 0x6E3C, symBinAddr: 0x10001360C, symSize: 0x48 }
  - { offsetInCU: 0x116C6, offset: 0x34296, size: 0x8, addend: 0x0, symName: __ZNSt3__119__unwrap_range_implIPP8KeyboardS3_E8__unwrapB8ue170006ES3_S3_, symObjAddr: 0x6F48, symBinAddr: 0x100013718, symSize: 0x58 }
  - { offsetInCU: 0x116FD, offset: 0x342CD, size: 0x8, addend: 0x0, symName: __ZNSt3__14pairIPP8KeyboardS3_EC1B8ue170006IS3_S3_LPv0EEEOT_OT0_, symObjAddr: 0x6FA0, symBinAddr: 0x100013770, symSize: 0x3C }
  - { offsetInCU: 0x1175B, offset: 0x3432B, size: 0x8, addend: 0x0, symName: __ZNSt3__14pairIPP8KeyboardS3_EC2B8ue170006IS3_S3_LPv0EEEOT_OT0_, symObjAddr: 0x6FDC, symBinAddr: 0x1000137AC, symSize: 0x34 }
  - { offsetInCU: 0x117B9, offset: 0x34389, size: 0x8, addend: 0x0, symName: __ZNSt3__14pairIPP8KeyboardS3_EC1B8ue170006IRS3_S6_LPv0EEEOT_OT0_, symObjAddr: 0x713C, symBinAddr: 0x10001390C, symSize: 0x3C }
  - { offsetInCU: 0x11817, offset: 0x343E7, size: 0x8, addend: 0x0, symName: __ZNSt3__14pairIPP8KeyboardS3_EC2B8ue170006IRS3_S6_LPv0EEEOT_OT0_, symObjAddr: 0x7178, symBinAddr: 0x100013948, symSize: 0x34 }
  - { offsetInCU: 0x11875, offset: 0x34445, size: 0x8, addend: 0x0, symName: __ZNSt3__118__unwrap_iter_implIPP8KeyboardLb1EE8__unwrapB8ue170006ES3_, symObjAddr: 0x71AC, symBinAddr: 0x10001397C, symSize: 0x24 }
  - { offsetInCU: 0x11898, offset: 0x34468, size: 0x8, addend: 0x0, symName: __ZNSt3__119__unwrap_range_implIPP8KeyboardS3_E8__rewrapB8ue170006ES3_S3_, symObjAddr: 0x71D0, symBinAddr: 0x1000139A0, symSize: 0x2C }
  - { offsetInCU: 0x118C9, offset: 0x34499, size: 0x8, addend: 0x0, symName: __ZNSt3__118__unwrap_iter_implIPP8KeyboardLb1EE8__rewrapB8ue170006ES3_S3_, symObjAddr: 0x71FC, symBinAddr: 0x1000139CC, symSize: 0x50 }
  - { offsetInCU: 0x118FA, offset: 0x344CA, size: 0x8, addend: 0x0, symName: __ZNSt3__114__split_bufferIP8KeyboardRNS_9allocatorIS2_EEE18__construct_at_endINS_13move_iteratorIPS2_EEEENS_9enable_ifIXsr31__has_forward_iterator_categoryIT_EE5valueEvE4typeESC_SC_, symObjAddr: 0x728C, symBinAddr: 0x100013A5C, symSize: 0x60 }
  - { offsetInCU: 0x11947, offset: 0x34517, size: 0x8, addend: 0x0, symName: __ZNSt3__113move_iteratorIPP8KeyboardEC1B8ue170006ES3_, symObjAddr: 0x72EC, symBinAddr: 0x100013ABC, symSize: 0x34 }
  - { offsetInCU: 0x1197F, offset: 0x3454F, size: 0x8, addend: 0x0, symName: __ZNKSt3__114__move_trivialclB8ue170006IP8KeyboardS3_Li0EEENS_4pairIPT_PT0_EES6_S6_S8_, symObjAddr: 0x745C, symBinAddr: 0x100013C2C, symSize: 0x48 }
  - { offsetInCU: 0x119E7, offset: 0x345B7, size: 0x8, addend: 0x0, symName: __ZNSt3__14pairIPP8KeyboardS3_EC1B8ue170006IRS3_S3_LPv0EEEOT_OT0_, symObjAddr: 0x755C, symBinAddr: 0x100013D2C, symSize: 0x3C }
  - { offsetInCU: 0x11A45, offset: 0x34615, size: 0x8, addend: 0x0, symName: __ZNSt3__14pairIPP8KeyboardS3_EC2B8ue170006IRS3_S3_LPv0EEEOT_OT0_, symObjAddr: 0x7598, symBinAddr: 0x100013D68, symSize: 0x34 }
  - { offsetInCU: 0x11AA3, offset: 0x34673, size: 0x8, addend: 0x0, symName: __ZNSt3__114__split_bufferIP8KeyboardRNS_9allocatorIS2_EEE28__construct_at_end_with_sizeINS_13move_iteratorIPS2_EEEEvT_m, symObjAddr: 0x75CC, symBinAddr: 0x100013D9C, symSize: 0xDC }
  - { offsetInCU: 0x11B0B, offset: 0x346DB, size: 0x8, addend: 0x0, symName: __ZNSt3__114__split_bufferIP8KeyboardRNS_9allocatorIS2_EEE21_ConstructTransactionC1B8ue170006EPPS2_m, symObjAddr: 0x76E4, symBinAddr: 0x100013EB4, symSize: 0x3C }
  - { offsetInCU: 0x11B51, offset: 0x34721, size: 0x8, addend: 0x0, symName: __ZNKSt3__113move_iteratorIPP8KeyboardEdeB8ue170006Ev, symObjAddr: 0x7720, symBinAddr: 0x100013EF0, symSize: 0x2C }
  - { offsetInCU: 0x11B77, offset: 0x34747, size: 0x8, addend: 0x0, symName: __ZNSt3__113move_iteratorIPP8KeyboardEppB8ue170006Ev, symObjAddr: 0x774C, symBinAddr: 0x100013F1C, symSize: 0x20 }
  - { offsetInCU: 0x11B9D, offset: 0x3476D, size: 0x8, addend: 0x0, symName: __ZNSt3__114__split_bufferIP8KeyboardRNS_9allocatorIS2_EEE21_ConstructTransactionD1B8ue170006Ev, symObjAddr: 0x776C, symBinAddr: 0x100013F3C, symSize: 0x2C }
  - { offsetInCU: 0x11BC7, offset: 0x34797, size: 0x8, addend: 0x0, symName: __ZNSt3__114__split_bufferIP8KeyboardRNS_9allocatorIS2_EEE21_ConstructTransactionC2B8ue170006EPPS2_m, symObjAddr: 0x7798, symBinAddr: 0x100013F68, symSize: 0x44 }
  - { offsetInCU: 0x11C13, offset: 0x347E3, size: 0x8, addend: 0x0, symName: __ZNKSt3__16ranges11__iter_move4__fnclB8ue170006IRKPP8KeyboardEEDTclsr3stdE4movedeclsr3stdE7forwardIT_Efp_EEEOS9_, symObjAddr: 0x77DC, symBinAddr: 0x100013FAC, symSize: 0x1C }
  - { offsetInCU: 0x11C50, offset: 0x34820, size: 0x8, addend: 0x0, symName: __ZNSt3__114__split_bufferIP8KeyboardRNS_9allocatorIS2_EEE21_ConstructTransactionD2B8ue170006Ev, symObjAddr: 0x77F8, symBinAddr: 0x100013FC8, symSize: 0x20 }
  - { offsetInCU: 0x11C7A, offset: 0x3484A, size: 0x8, addend: 0x0, symName: __ZNKRSt3__113move_iteratorIPP8KeyboardE4baseB8ue170006Ev, symObjAddr: 0x7894, symBinAddr: 0x100014064, symSize: 0x14 }
  - { offsetInCU: 0x11CA0, offset: 0x34870, size: 0x8, addend: 0x0, symName: __ZNSt3__113move_iteratorIPP8KeyboardEC2B8ue170006ES3_, symObjAddr: 0x78A8, symBinAddr: 0x100014078, symSize: 0x20 }
  - { offsetInCU: 0x11CD8, offset: 0x348A8, size: 0x8, addend: 0x0, symName: __ZNSt3__111__wrap_iterIPP8KeyboardEC1B8ue170006ES3_, symObjAddr: 0x7900, symBinAddr: 0x1000140D0, symSize: 0x34 }
  - { offsetInCU: 0x11D10, offset: 0x348E0, size: 0x8, addend: 0x0, symName: __ZNSt3__111__wrap_iterIPP8KeyboardEC2B8ue170006ES3_, symObjAddr: 0x7934, symBinAddr: 0x100014104, symSize: 0x20 }
  - { offsetInCU: 0x11D48, offset: 0x34918, size: 0x8, addend: 0x0, symName: __ZNSt3__18_IterOpsINS_17_ClassicAlgPolicyEE8distanceB8ue170006INS_11__wrap_iterIPP8KeyboardEEEENS_15iterator_traitsIT_E15difference_typeESA_SA_, symObjAddr: 0x7A60, symBinAddr: 0x100014230, symSize: 0x3C }
  - { offsetInCU: 0x11D82, offset: 0x34952, size: 0x8, addend: 0x0, symName: __ZNSt3__18_IterOpsINS_17_ClassicAlgPolicyEE4nextB8ue170006IRNS_11__wrap_iterIPP8KeyboardEEEEu14__remove_cvrefIT_EOSA_NS_15iterator_traitsISB_E15difference_typeE, symObjAddr: 0x7AB8, symBinAddr: 0x100014288, symSize: 0x40 }
  - { offsetInCU: 0x11DBC, offset: 0x3498C, size: 0x8, addend: 0x0, symName: __ZNKSt3__111__wrap_iterIPP8KeyboardEdeB8ue170006Ev, symObjAddr: 0x7B64, symBinAddr: 0x100014334, symSize: 0x18 }
  - { offsetInCU: 0x11DE2, offset: 0x349B2, size: 0x8, addend: 0x0, symName: __ZNSt3__111__wrap_iterIPP8KeyboardEppB8ue170006Ev, symObjAddr: 0x7B7C, symBinAddr: 0x10001434C, symSize: 0x20 }
  - { offsetInCU: 0x11E08, offset: 0x349D8, size: 0x8, addend: 0x0, symName: __ZNSt3__111__wrap_iterIPP8KeyboardEpLB8ue170006El, symObjAddr: 0x7D04, symBinAddr: 0x1000144C0, symSize: 0x28 }
  - { offsetInCU: 0x11E4E, offset: 0x34A1E, size: 0x8, addend: 0x0, symName: '__ZZN8Keyboard14breedOrganismsEPS_S0_PNSt3__13mapINS1_12basic_stringIcNS1_11char_traitsIcEENS1_9allocatorIcEEEEdNS1_4lessIS8_EENS6_INS1_4pairIKS8_dEEEEEESG_ENK3$_1clES0_S0_', symObjAddr: 0x7D2C, symBinAddr: 0x1000144E8, symSize: 0x78 }
  - { offsetInCU: 0x11EA0, offset: 0x34A70, size: 0x8, addend: 0x0, symName: __ZNKSt3__110__identityclB8ue170006IRP8KeyboardEEOT_S6_, symObjAddr: 0x7DA4, symBinAddr: 0x100014560, symSize: 0x18 }
  - { offsetInCU: 0x11EDD, offset: 0x34AAD, size: 0x8, addend: 0x0, symName: __ZNSt3__111__wrap_iterIPKP8KeyboardEC2B8ue170006IPS2_EERKNS0_IT_EEPNS_9enable_ifIXsr14is_convertibleIS8_S4_EE5valueEvE4typeE, symObjAddr: 0x7DBC, symBinAddr: 0x100014578, symSize: 0x40 }
  - { offsetInCU: 0x11F34, offset: 0x34B04, size: 0x8, addend: 0x0, symName: '__ZZN8Keyboard14breedOrganismsEPS_S0_PNSt3__13mapINS1_12basic_stringIcNS1_11char_traitsIcEENS1_9allocatorIcEEEEdNS1_4lessIS8_EENS6_INS1_4pairIKS8_dEEEEEESG_ENK3$_2clES0_S0_', symObjAddr: 0x7F48, symBinAddr: 0x100014704, symSize: 0x78 }
  - { offsetInCU: 0x11F7A, offset: 0x34B4A, size: 0x8, addend: 0x0, symName: __ZNSt3__112basic_stringIcNS_11char_traitsIcEENS_9allocatorIcEEE6appendB8ue170006ERKS5_, symObjAddr: 0x940C, symBinAddr: 0x10001477C, symSize: 0x4C }
  - { offsetInCU: 0x11FAF, offset: 0x34B7F, size: 0x8, addend: 0x0, symName: __ZNSt3__18_IterOpsINS_17_ClassicAlgPolicyEE4nextB8ue170006INS_11__wrap_iterIPcEEEET_S7_S7_, symObjAddr: 0x9708, symBinAddr: 0x1000149A4, symSize: 0x20 }
  - { offsetInCU: 0x11FE5, offset: 0x34BB5, size: 0x8, addend: 0x0, symName: __ZNSt3__124uniform_int_distributionIlEC1B8ue170006Ev, symObjAddr: 0x9768, symBinAddr: 0x100014A04, symSize: 0x3C }
  - { offsetInCU: 0x1200F, offset: 0x34BDF, size: 0x8, addend: 0x0, symName: __ZNSt3__111__wrap_iterIPcEmmB8ue170006Ev, symObjAddr: 0x97A4, symBinAddr: 0x100014A40, symSize: 0x20 }
  - { offsetInCU: 0x12035, offset: 0x34C05, size: 0x8, addend: 0x0, symName: __ZNSt3__124uniform_int_distributionIlE10param_typeC1B8ue170006Ell, symObjAddr: 0x9980, symBinAddr: 0x100014C1C, symSize: 0x3C }
  - { offsetInCU: 0x12081, offset: 0x34C51, size: 0x8, addend: 0x0, symName: __ZNSt3__18_IterOpsINS_17_ClassicAlgPolicyEE9iter_swapB8ue170006IRNS_11__wrap_iterIPcEES6_EEvOT_OT0_, symObjAddr: 0x99BC, symBinAddr: 0x100014C58, symSize: 0x44 }
  - { offsetInCU: 0x120C4, offset: 0x34C94, size: 0x8, addend: 0x0, symName: __ZNKSt3__111__wrap_iterIPcEplB8ue170006El, symObjAddr: 0x9A00, symBinAddr: 0x100014C9C, symSize: 0x3C }
  - { offsetInCU: 0x12106, offset: 0x34CD6, size: 0x8, addend: 0x0, symName: __ZNSt3__124uniform_int_distributionIlEC1B8ue170006Ell, symObjAddr: 0x9A3C, symBinAddr: 0x100014CD8, symSize: 0x3C }
  - { offsetInCU: 0x1214C, offset: 0x34D1C, size: 0x8, addend: 0x0, symName: __ZNSt3__124uniform_int_distributionIlEC2B8ue170006Ell, symObjAddr: 0x9A78, symBinAddr: 0x100014D14, symSize: 0x3C }
  - { offsetInCU: 0x12192, offset: 0x34D62, size: 0x8, addend: 0x0, symName: __ZNKSt3__124uniform_int_distributionIlE10param_type1bB8ue170006Ev, symObjAddr: 0x9AB4, symBinAddr: 0x100014D50, symSize: 0x18 }
  - { offsetInCU: 0x121B8, offset: 0x34D88, size: 0x8, addend: 0x0, symName: __ZNKSt3__124uniform_int_distributionIlE10param_type1aB8ue170006Ev, symObjAddr: 0x9ACC, symBinAddr: 0x100014D68, symSize: 0x18 }
  - { offsetInCU: 0x121DE, offset: 0x34DAE, size: 0x8, addend: 0x0, symName: __ZNSt3__125__independent_bits_engineINS_26linear_congruential_engineIjLj48271ELj0ELj2147483647EEEmEC1ERS2_m, symObjAddr: 0x9AE4, symBinAddr: 0x100014D80, symSize: 0x3C }
  - { offsetInCU: 0x12225, offset: 0x34DF5, size: 0x8, addend: 0x0, symName: __ZNSt3__125__independent_bits_engineINS_26linear_congruential_engineIjLj48271ELj0ELj2147483647EEEmEclB8ue170006Ev, symObjAddr: 0x9B20, symBinAddr: 0x100014DBC, symSize: 0x24 }
  - { offsetInCU: 0x1224B, offset: 0x34E1B, size: 0x8, addend: 0x0, symName: __ZNSt3__125__independent_bits_engineINS_26linear_congruential_engineIjLj48271ELj0ELj2147483647EEEmEC2ERS2_m, symObjAddr: 0x9B98, symBinAddr: 0x100014E34, symSize: 0x264 }
  - { offsetInCU: 0x12292, offset: 0x34E62, size: 0x8, addend: 0x0, symName: __ZNSt3__125__independent_bits_engineINS_26linear_congruential_engineIjLj48271ELj0ELj2147483647EEEmE6__evalENS_17integral_constantIbLb1EEE, symObjAddr: 0x9DFC, symBinAddr: 0x100015098, symSize: 0x1F0 }
  - { offsetInCU: 0x1234F, offset: 0x34F1F, size: 0x8, addend: 0x0, symName: __ZNSt3__126linear_congruential_engineIjLj48271ELj0ELj2147483647EEclB8ue170006Ev, symObjAddr: 0x9FEC, symBinAddr: 0x100015288, symSize: 0x34 }
  - { offsetInCU: 0x12375, offset: 0x34F45, size: 0x8, addend: 0x0, symName: __ZNSt3__126linear_congruential_engineIjLj48271ELj0ELj2147483647EE3minB8ue170006Ev, symObjAddr: 0xA020, symBinAddr: 0x1000152BC, symSize: 0x8 }
  - { offsetInCU: 0x12394, offset: 0x34F64, size: 0x8, addend: 0x0, symName: __ZNSt3__18__lce_taILy48271ELy0ELy2147483647ELy4294967295ELb1EE4nextB8ue170006Ej, symObjAddr: 0xA028, symBinAddr: 0x1000152C4, symSize: 0x88 }
  - { offsetInCU: 0x1240B, offset: 0x34FDB, size: 0x8, addend: 0x0, symName: __ZNSt3__124uniform_int_distributionIlE10param_typeC2B8ue170006Ell, symObjAddr: 0xA0CC, symBinAddr: 0x100015368, symSize: 0x2C }
  - { offsetInCU: 0x12451, offset: 0x35021, size: 0x8, addend: 0x0, symName: __ZNSt3__111__wrap_iterIPcEpLB8ue170006El, symObjAddr: 0xA184, symBinAddr: 0x100015420, symSize: 0x28 }
  - { offsetInCU: 0x3EB1, offset: 0x390D8, size: 0x8, addend: 0x0, symName: __ZNSt3__17advanceB8ue170006IPNS_12basic_stringIcNS_11char_traitsIcEENS_9allocatorIcEEEEllvEEvRT_T0_, symObjAddr: 0x2B8C, symBinAddr: 0x100017A24, symSize: 0x38 }
  - { offsetInCU: 0x5894, offset: 0x3AABB, size: 0x8, addend: 0x0, symName: __ZNSt3__17advanceB8ue170006INS_21__tree_const_iteratorINS_12__value_typeINS_12basic_stringIcNS_11char_traitsIcEENS_9allocatorIcEEEEiEEPNS_11__tree_nodeIS9_PvEElEEllvEEvRT_T0_, symObjAddr: 0x65D4, symBinAddr: 0x100019228, symSize: 0x38 }
  - { offsetInCU: 0x7571, offset: 0x3C798, size: 0x8, addend: 0x0, symName: __ZNSt3__1rsB8ue170006IcNS_11char_traitsIcEENS_9allocatorIcEEEERNS_13basic_istreamIT_T0_EES9_RNS_12basic_stringIS6_S7_T1_EE, symObjAddr: 0x310, symBinAddr: 0x1000157CC, symSize: 0x30C }
  - { offsetInCU: 0x763E, offset: 0x3C865, size: 0x8, addend: 0x0, symName: __ZNSt3__1eqB8ue170006INS_9allocatorIcEEEEbRKNS_12basic_stringIcNS_11char_traitsIcEET_EES9_, symObjAddr: 0x11EC, symBinAddr: 0x100016670, symSize: 0x148 }
  - { offsetInCU: 0x9BC3, offset: 0x3EDEA, size: 0x8, addend: 0x0, symName: __ZNSt3__122__make_exception_guardB8ue170006INS_6vectorINS_12basic_stringIcNS_11char_traitsIcEENS_9allocatorIcEEEENS5_IS7_EEE16__destroy_vectorEEENS_28__exception_guard_exceptionsIT_EESC_, symObjAddr: 0x1828, symBinAddr: 0x100016994, symSize: 0x40 }
  - { offsetInCU: 0x9BF8, offset: 0x3EE1F, size: 0x8, addend: 0x0, symName: __ZNSt3__119__allocate_at_leastB8ue170006INS_9allocatorINS_12basic_stringIcNS_11char_traitsIcEENS1_IcEEEEEEEENS_19__allocation_resultINS_16allocator_traitsIT_E7pointerEEERSA_m, symObjAddr: 0x1C38, symBinAddr: 0x100016DA4, symSize: 0x40 }
  - { offsetInCU: 0x9C3B, offset: 0x3EE62, size: 0x8, addend: 0x0, symName: __ZNSt3__112__to_addressB8ue170006INS_12basic_stringIcNS_11char_traitsIcEENS_9allocatorIcEEEEEEPT_S8_, symObjAddr: 0x2240, symBinAddr: 0x1000170D8, symSize: 0x14 }
  - { offsetInCU: 0x9C70, offset: 0x3EE97, size: 0x8, addend: 0x0, symName: __ZNSt3__130__uninitialized_allocator_copyB8ue170006INS_9allocatorINS_12basic_stringIcNS_11char_traitsIcEENS1_IcEEEEEEPKS6_S9_PS6_EET2_RT_T0_T1_SB_, symObjAddr: 0x22F0, symBinAddr: 0x100017188, symSize: 0x80 }
  - { offsetInCU: 0x9D0D, offset: 0x3EF34, size: 0x8, addend: 0x0, symName: __ZNSt3__114__unwrap_rangeB8ue170006IPKNS_12basic_stringIcNS_11char_traitsIcEENS_9allocatorIcEEEES8_EEDaT_T0_, symObjAddr: 0x23E8, symBinAddr: 0x100017280, symSize: 0x3C }
  - { offsetInCU: 0x9D59, offset: 0x3EF80, size: 0x8, addend: 0x0, symName: __ZNSt3__135__uninitialized_allocator_copy_implB8ue170006INS_9allocatorINS_12basic_stringIcNS_11char_traitsIcEENS1_IcEEEEEEPKS6_S9_PS6_EET2_RT_T0_T1_SB_, symObjAddr: 0x2424, symBinAddr: 0x1000172BC, symSize: 0xF4 }
  - { offsetInCU: 0x9DF7, offset: 0x3F01E, size: 0x8, addend: 0x0, symName: __ZNSt3__113__unwrap_iterB8ue170006IPNS_12basic_stringIcNS_11char_traitsIcEENS_9allocatorIcEEEENS_18__unwrap_iter_implIS7_Lb1EEELi0EEEDTclsrT0_8__unwrapclsr3stdE7declvalIT_EEEESB_, symObjAddr: 0x2518, symBinAddr: 0x1000173B0, symSize: 0x24 }
  - { offsetInCU: 0x9E3B, offset: 0x3F062, size: 0x8, addend: 0x0, symName: __ZNSt3__113__rewrap_iterB8ue170006IPNS_12basic_stringIcNS_11char_traitsIcEENS_9allocatorIcEEEES7_NS_18__unwrap_iter_implIS7_Lb1EEEEET_SA_T0_, symObjAddr: 0x253C, symBinAddr: 0x1000173D4, symSize: 0x3C }
  - { offsetInCU: 0x9F92, offset: 0x3F1B9, size: 0x8, addend: 0x0, symName: __ZNSt3__113__unwrap_iterB8ue170006IPKNS_12basic_stringIcNS_11char_traitsIcEENS_9allocatorIcEEEENS_18__unwrap_iter_implIS8_Lb1EEELi0EEEDTclsrT0_8__unwrapclsr3stdE7declvalIT_EEEESC_, symObjAddr: 0x25D0, symBinAddr: 0x100017468, symSize: 0x24 }
  - { offsetInCU: 0xA029, offset: 0x3F250, size: 0x8, addend: 0x0, symName: __ZNSt3__112__to_addressB8ue170006IKNS_12basic_stringIcNS_11char_traitsIcEENS_9allocatorIcEEEEEEPT_S9_, symObjAddr: 0x2654, symBinAddr: 0x1000174EC, symSize: 0x14 }
  - { offsetInCU: 0xA05E, offset: 0x3F285, size: 0x8, addend: 0x0, symName: __ZNSt3__122__make_exception_guardB8ue170006INS_29_AllocatorDestroyRangeReverseINS_9allocatorINS_12basic_stringIcNS_11char_traitsIcEENS2_IcEEEEEEPS7_EEEENS_28__exception_guard_exceptionsIT_EESC_, symObjAddr: 0x269C, symBinAddr: 0x100017534, symSize: 0x4C }
  - { offsetInCU: 0xA0B9, offset: 0x3F2E0, size: 0x8, addend: 0x0, symName: __ZNSt3__112construct_atB8ue170006INS_12basic_stringIcNS_11char_traitsIcEENS_9allocatorIcEEEEJRKS6_EPS6_EEPT_SB_DpOT0_, symObjAddr: 0x2840, symBinAddr: 0x1000176D8, symSize: 0x3C }
  - { offsetInCU: 0xA129, offset: 0x3F350, size: 0x8, addend: 0x0, symName: __ZNSt3__119__allocator_destroyB8ue170006INS_9allocatorINS_12basic_stringIcNS_11char_traitsIcEENS1_IcEEEEEENS_16reverse_iteratorIPS6_EESA_EEvRT_T0_T1_, symObjAddr: 0x2934, symBinAddr: 0x1000177CC, symSize: 0x70 }
  - { offsetInCU: 0xA18C, offset: 0x3F3B3, size: 0x8, addend: 0x0, symName: __ZNSt3__1neB8ue170006IPNS_12basic_stringIcNS_11char_traitsIcEENS_9allocatorIcEEEES7_EEbRKNS_16reverse_iteratorIT_EERKNS8_IT0_EE, symObjAddr: 0x29D8, symBinAddr: 0x100017870, symSize: 0x48 }
  - { offsetInCU: 0xA1D8, offset: 0x3F3FF, size: 0x8, addend: 0x0, symName: __ZNSt3__112__to_addressB8ue170006INS_16reverse_iteratorIPNS_12basic_stringIcNS_11char_traitsIcEENS_9allocatorIcEEEEEEvEEu7__decayIDTclsr19__to_address_helperIT_EE6__callclsr3stdE7declvalIRKSA_EEEEESC_, symObjAddr: 0x2A48, symBinAddr: 0x1000178E0, symSize: 0x24 }
  - { offsetInCU: 0xA20E, offset: 0x3F435, size: 0x8, addend: 0x0, symName: __ZNSt3__110destroy_atB8ue170006INS_12basic_stringIcNS_11char_traitsIcEENS_9allocatorIcEEEELi0EEEvPT_, symObjAddr: 0x2AA4, symBinAddr: 0x10001793C, symSize: 0x24 }
  - { offsetInCU: 0xA245, offset: 0x3F46C, size: 0x8, addend: 0x0, symName: __ZNSt3__112__destroy_atB8ue170006INS_12basic_stringIcNS_11char_traitsIcEENS_9allocatorIcEEEELi0EEEvPT_, symObjAddr: 0x2AC8, symBinAddr: 0x100017960, symSize: 0x24 }
  - { offsetInCU: 0xA2A6, offset: 0x3F4CD, size: 0x8, addend: 0x0, symName: __ZNSt3__14prevB8ue170006IPNS_12basic_stringIcNS_11char_traitsIcEENS_9allocatorIcEEEEEENS_9enable_ifIXsr29__has_input_iterator_categoryIT_EE5valueES9_E4typeES9_NS_15iterator_traitsIS9_E15difference_typeE, symObjAddr: 0x2B50, symBinAddr: 0x1000179E8, symSize: 0x3C }
  - { offsetInCU: 0xA2E9, offset: 0x3F510, size: 0x8, addend: 0x0, symName: __ZNSt3__19__advanceB8ue170006IPNS_12basic_stringIcNS_11char_traitsIcEENS_9allocatorIcEEEEEEvRT_NS_15iterator_traitsIS8_E15difference_typeENS_26random_access_iterator_tagE, symObjAddr: 0x2BD8, symBinAddr: 0x100017A5C, symSize: 0x30 }
  - { offsetInCU: 0xA386, offset: 0x3F5AD, size: 0x8, addend: 0x0, symName: __ZNSt3__130__uninitialized_allocator_copyB8ue170006INS_9allocatorINS_12basic_stringIcNS_11char_traitsIcEENS1_IcEEEEEEPS6_S8_S8_EET2_RT_T0_T1_S9_, symObjAddr: 0x3334, symBinAddr: 0x1000180B0, symSize: 0x80 }
  - { offsetInCU: 0xA423, offset: 0x3F64A, size: 0x8, addend: 0x0, symName: __ZNSt3__114__unwrap_rangeB8ue170006IPNS_12basic_stringIcNS_11char_traitsIcEENS_9allocatorIcEEEES7_EEDaT_T0_, symObjAddr: 0x33B4, symBinAddr: 0x100018130, symSize: 0x3C }
  - { offsetInCU: 0xA46F, offset: 0x3F696, size: 0x8, addend: 0x0, symName: __ZNSt3__135__uninitialized_allocator_copy_implB8ue170006INS_9allocatorINS_12basic_stringIcNS_11char_traitsIcEENS1_IcEEEEEEPS6_S8_S8_EET2_RT_T0_T1_S9_, symObjAddr: 0x33F0, symBinAddr: 0x10001816C, symSize: 0xF4 }
  - { offsetInCU: 0xA60F, offset: 0x3F836, size: 0x8, addend: 0x0, symName: __ZNSt3__112construct_atB8ue170006INS_12basic_stringIcNS_11char_traitsIcEENS_9allocatorIcEEEEJRS6_EPS6_EEPT_SA_DpOT0_, symObjAddr: 0x35DC, symBinAddr: 0x100018358, symSize: 0x3C }
  - { offsetInCU: 0xAC0A, offset: 0x3FE31, size: 0x8, addend: 0x0, symName: __ZNSt3__1neB8ue170006ERKNS_20__map_const_iteratorINS_21__tree_const_iteratorINS_12__value_typeINS_12basic_stringIcNS_11char_traitsIcEENS_9allocatorIcEEEEiEEPNS_11__tree_nodeIS9_PvEElEEEESH_, symObjAddr: 0x532C, symBinAddr: 0x100018A24, symSize: 0x30 }
  - { offsetInCU: 0xAC47, offset: 0x3FE6E, size: 0x8, addend: 0x0, symName: __ZNSt3__1neB8ue170006ERKNS_21__tree_const_iteratorINS_12__value_typeINS_12basic_stringIcNS_11char_traitsIcEENS_9allocatorIcEEEEiEEPNS_11__tree_nodeIS8_PvEElEESF_, symObjAddr: 0x5434, symBinAddr: 0x100018B2C, symSize: 0x34 }
  - { offsetInCU: 0xAC84, offset: 0x3FEAB, size: 0x8, addend: 0x0, symName: __ZNSt3__1eqB8ue170006ERKNS_21__tree_const_iteratorINS_12__value_typeINS_12basic_stringIcNS_11char_traitsIcEENS_9allocatorIcEEEEiEEPNS_11__tree_nodeIS8_PvEElEESF_, symObjAddr: 0x5468, symBinAddr: 0x100018B60, symSize: 0x30 }
  - { offsetInCU: 0xACC1, offset: 0x3FEE8, size: 0x8, addend: 0x0, symName: __ZNSt3__14nextB8ue170006INS_21__tree_const_iteratorINS_12__value_typeINS_12basic_stringIcNS_11char_traitsIcEENS_9allocatorIcEEEEiEEPNS_11__tree_nodeIS9_PvEElEEEENS_9enable_ifIXsr29__has_input_iterator_categoryIT_EE5valueESG_E4typeESG_NS_15iterator_traitsISG_E15difference_typeE, symObjAddr: 0x5F70, symBinAddr: 0x1000191B4, symSize: 0x3C }
  - { offsetInCU: 0xAD04, offset: 0x3FF2B, size: 0x8, addend: 0x0, symName: __ZNSt3__19__advanceB8ue170006INS_21__tree_const_iteratorINS_12__value_typeINS_12basic_stringIcNS_11char_traitsIcEENS_9allocatorIcEEEEiEEPNS_11__tree_nodeIS9_PvEElEEEEvRT_NS_15iterator_traitsISF_E15difference_typeENS_26bidirectional_iterator_tagE, symObjAddr: 0x660C, symBinAddr: 0x100019260, symSize: 0xA4 }
  - { offsetInCU: 0xAD72, offset: 0x3FF99, size: 0x8, addend: 0x0, symName: __ZNSt3__112construct_atB8ue170006INS_4pairIKNS_12basic_stringIcNS_11char_traitsIcEENS_9allocatorIcEEEEiEEJRKS9_EPS9_EEPT_SE_DpOT0_, symObjAddr: 0x6AA0, symBinAddr: 0x10001936C, symSize: 0x3C }
  - { offsetInCU: 0xD705, offset: 0x4292C, size: 0x8, addend: 0x0, symName: __Z12numberPromptNSt3__112basic_stringIcNS_11char_traitsIcEENS_9allocatorIcEEEE, symObjAddr: 0xA8, symBinAddr: 0x10001562C, symSize: 0x1A0 }
  - { offsetInCU: 0xD76A, offset: 0x42991, size: 0x8, addend: 0x0, symName: __ZNSt16invalid_argumentC1B8ue170006ERKS_, symObjAddr: 0x61C, symBinAddr: 0x100015AD8, symSize: 0x34 }
  - { offsetInCU: 0xD79D, offset: 0x429C4, size: 0x8, addend: 0x0, symName: __Z6promptNSt3__112basic_stringIcNS_11char_traitsIcEENS_9allocatorIcEEEENS_6vectorIS5_NS3_IS5_EEEE, symObjAddr: 0x65C, symBinAddr: 0x100015B0C, symSize: 0x324 }
  - { offsetInCU: 0xD825, offset: 0x42A4C, size: 0x8, addend: 0x0, symName: __ZNKSt3__16vectorINS_12basic_stringIcNS_11char_traitsIcEENS_9allocatorIcEEEENS4_IS6_EEE4sizeB8ue170006Ev, symObjAddr: 0x980, symBinAddr: 0x100015E30, symSize: 0x28 }
  - { offsetInCU: 0xD84B, offset: 0x42A72, size: 0x8, addend: 0x0, symName: __ZNSt3__16vectorINS_12basic_stringIcNS_11char_traitsIcEENS_9allocatorIcEEEENS4_IS6_EEEixB8ue170006Em, symObjAddr: 0x9A8, symBinAddr: 0x100015E58, symSize: 0x2C }
  - { offsetInCU: 0xD882, offset: 0x42AA9, size: 0x8, addend: 0x0, symName: _main, symObjAddr: 0x9D4, symBinAddr: 0x100015E84, symSize: 0x71C }
  - { offsetInCU: 0xD96C, offset: 0x42B93, size: 0x8, addend: 0x0, symName: __ZNSt3__16vectorINS_12basic_stringIcNS_11char_traitsIcEENS_9allocatorIcEEEENS4_IS6_EEEC1B8ue170006ESt16initializer_listIS6_E, symObjAddr: 0x111C, symBinAddr: 0x1000165A0, symSize: 0x3C }
  - { offsetInCU: 0xD9A7, offset: 0x42BCE, size: 0x8, addend: 0x0, symName: __ZNSt3__16vectorINS_12basic_stringIcNS_11char_traitsIcEENS_9allocatorIcEEEENS4_IS6_EEEC1ERKS8_, symObjAddr: 0x1158, symBinAddr: 0x1000165DC, symSize: 0x34 }
  - { offsetInCU: 0xD9E2, offset: 0x42C09, size: 0x8, addend: 0x0, symName: __ZNSt3__112basic_stringIcNS_11char_traitsIcEENS_9allocatorIcEEEaSB8ue170006EOS5_, symObjAddr: 0x118C, symBinAddr: 0x100016610, symSize: 0x34 }
  - { offsetInCU: 0xDA17, offset: 0x42C3E, size: 0x8, addend: 0x0, symName: __ZNSt3__16vectorINS_12basic_stringIcNS_11char_traitsIcEENS_9allocatorIcEEEENS4_IS6_EEED1B8ue170006Ev, symObjAddr: 0x11C0, symBinAddr: 0x100016644, symSize: 0x2C }
  - { offsetInCU: 0xDBD3, offset: 0x42DFA, size: 0x8, addend: 0x0, symName: __ZNSt3__13mapINS_12basic_stringIcNS_11char_traitsIcEENS_9allocatorIcEEEEiNS_4lessIS6_EENS4_INS_4pairIKS6_iEEEEEC1B8ue170006ERKSD_, symObjAddr: 0x1334, symBinAddr: 0x1000167B8, symSize: 0x34 }
  - { offsetInCU: 0xE115, offset: 0x4333C, size: 0x8, addend: 0x0, symName: __ZNSt16invalid_argumentC2B8ue170006ERKS_, symObjAddr: 0x15C0, symBinAddr: 0x1000167EC, symSize: 0x4C }
  - { offsetInCU: 0xE149, offset: 0x43370, size: 0x8, addend: 0x0, symName: __ZNSt3__16vectorINS_12basic_stringIcNS_11char_traitsIcEENS_9allocatorIcEEEENS4_IS6_EEEC2B8ue170006ESt16initializer_listIS6_E, symObjAddr: 0x16CC, symBinAddr: 0x100016838, symSize: 0x120 }
  - { offsetInCU: 0xE19F, offset: 0x433C6, size: 0x8, addend: 0x0, symName: __ZNSt3__117__compressed_pairIPNS_12basic_stringIcNS_11char_traitsIcEENS_9allocatorIcEEEENS4_IS6_EEEC1B8ue170006IDnNS_18__default_init_tagEEEOT_OT0_, symObjAddr: 0x17EC, symBinAddr: 0x100016958, symSize: 0x3C }
  - { offsetInCU: 0xE1F7, offset: 0x4341E, size: 0x8, addend: 0x0, symName: __ZNSt3__16vectorINS_12basic_stringIcNS_11char_traitsIcEENS_9allocatorIcEEEENS4_IS6_EEE16__destroy_vectorC1B8ue170006ERS8_, symObjAddr: 0x1868, symBinAddr: 0x1000169D4, symSize: 0x34 }
  - { offsetInCU: 0xE230, offset: 0x43457, size: 0x8, addend: 0x0, symName: __ZNKSt16initializer_listINSt3__112basic_stringIcNS0_11char_traitsIcEENS0_9allocatorIcEEEEE4sizeB8ue170006Ev, symObjAddr: 0x189C, symBinAddr: 0x100016A08, symSize: 0x18 }
  - { offsetInCU: 0xE256, offset: 0x4347D, size: 0x8, addend: 0x0, symName: __ZNSt3__16vectorINS_12basic_stringIcNS_11char_traitsIcEENS_9allocatorIcEEEENS4_IS6_EEE11__vallocateB8ue170006Em, symObjAddr: 0x18B4, symBinAddr: 0x100016A20, symSize: 0xB4 }
  - { offsetInCU: 0xE29A, offset: 0x434C1, size: 0x8, addend: 0x0, symName: __ZNSt3__16vectorINS_12basic_stringIcNS_11char_traitsIcEENS_9allocatorIcEEEENS4_IS6_EEE18__construct_at_endIPKS6_SB_EEvT_T0_m, symObjAddr: 0x1968, symBinAddr: 0x100016AD4, symSize: 0x8C }
  - { offsetInCU: 0xE310, offset: 0x43537, size: 0x8, addend: 0x0, symName: __ZNKSt16initializer_listINSt3__112basic_stringIcNS0_11char_traitsIcEENS0_9allocatorIcEEEEE5beginB8ue170006Ev, symObjAddr: 0x19F4, symBinAddr: 0x100016B60, symSize: 0x18 }
  - { offsetInCU: 0xE336, offset: 0x4355D, size: 0x8, addend: 0x0, symName: __ZNKSt16initializer_listINSt3__112basic_stringIcNS0_11char_traitsIcEENS0_9allocatorIcEEEEE3endB8ue170006Ev, symObjAddr: 0x1A0C, symBinAddr: 0x100016B78, symSize: 0x28 }
  - { offsetInCU: 0xE35C, offset: 0x43583, size: 0x8, addend: 0x0, symName: __ZNSt3__128__exception_guard_exceptionsINS_6vectorINS_12basic_stringIcNS_11char_traitsIcEENS_9allocatorIcEEEENS5_IS7_EEE16__destroy_vectorEE10__completeB8ue170006Ev, symObjAddr: 0x1A34, symBinAddr: 0x100016BA0, symSize: 0x1C }
  - { offsetInCU: 0xE382, offset: 0x435A9, size: 0x8, addend: 0x0, symName: __ZNSt3__128__exception_guard_exceptionsINS_6vectorINS_12basic_stringIcNS_11char_traitsIcEENS_9allocatorIcEEEENS5_IS7_EEE16__destroy_vectorEED1B8ue170006Ev, symObjAddr: 0x1A50, symBinAddr: 0x100016BBC, symSize: 0x2C }
  - { offsetInCU: 0xE3AC, offset: 0x435D3, size: 0x8, addend: 0x0, symName: __ZNSt3__117__compressed_pairIPNS_12basic_stringIcNS_11char_traitsIcEENS_9allocatorIcEEEENS4_IS6_EEEC2B8ue170006IDnNS_18__default_init_tagEEEOT_OT0_, symObjAddr: 0x1A7C, symBinAddr: 0x100016BE8, symSize: 0x40 }
  - { offsetInCU: 0xE404, offset: 0x4362B, size: 0x8, addend: 0x0, symName: __ZNSt3__122__compressed_pair_elemIPNS_12basic_stringIcNS_11char_traitsIcEENS_9allocatorIcEEEELi0ELb0EEC2B8ue170006IDnvEEOT_, symObjAddr: 0x1ABC, symBinAddr: 0x100016C28, symSize: 0x1C }
  - { offsetInCU: 0xE446, offset: 0x4366D, size: 0x8, addend: 0x0, symName: __ZNSt3__122__compressed_pair_elemINS_9allocatorINS_12basic_stringIcNS_11char_traitsIcEENS1_IcEEEEEELi1ELb1EEC2B8ue170006ENS_18__default_init_tagE, symObjAddr: 0x1AD8, symBinAddr: 0x100016C44, symSize: 0x2C }
  - { offsetInCU: 0xE47A, offset: 0x436A1, size: 0x8, addend: 0x0, symName: __ZNSt3__19allocatorINS_12basic_stringIcNS_11char_traitsIcEENS0_IcEEEEEC2B8ue170006Ev, symObjAddr: 0x1B04, symBinAddr: 0x100016C70, symSize: 0x2C }
  - { offsetInCU: 0xE4A4, offset: 0x436CB, size: 0x8, addend: 0x0, symName: __ZNSt3__116__non_trivial_ifILb1ENS_9allocatorINS_12basic_stringIcNS_11char_traitsIcEENS1_IcEEEEEEEC2B8ue170006Ev, symObjAddr: 0x1B30, symBinAddr: 0x100016C9C, symSize: 0x14 }
  - { offsetInCU: 0xE4CE, offset: 0x436F5, size: 0x8, addend: 0x0, symName: __ZNSt3__128__exception_guard_exceptionsINS_6vectorINS_12basic_stringIcNS_11char_traitsIcEENS_9allocatorIcEEEENS5_IS7_EEE16__destroy_vectorEEC1B8ue170006ESA_, symObjAddr: 0x1B44, symBinAddr: 0x100016CB0, symSize: 0x34 }
  - { offsetInCU: 0xE506, offset: 0x4372D, size: 0x8, addend: 0x0, symName: __ZNSt3__128__exception_guard_exceptionsINS_6vectorINS_12basic_stringIcNS_11char_traitsIcEENS_9allocatorIcEEEENS5_IS7_EEE16__destroy_vectorEEC2B8ue170006ESA_, symObjAddr: 0x1B78, symBinAddr: 0x100016CE4, symSize: 0x24 }
  - { offsetInCU: 0xE53E, offset: 0x43765, size: 0x8, addend: 0x0, symName: __ZNSt3__16vectorINS_12basic_stringIcNS_11char_traitsIcEENS_9allocatorIcEEEENS4_IS6_EEE16__destroy_vectorC2B8ue170006ERS8_, symObjAddr: 0x1B9C, symBinAddr: 0x100016D08, symSize: 0x20 }
  - { offsetInCU: 0xE577, offset: 0x4379E, size: 0x8, addend: 0x0, symName: __ZNKSt3__16vectorINS_12basic_stringIcNS_11char_traitsIcEENS_9allocatorIcEEEENS4_IS6_EEE8max_sizeEv, symObjAddr: 0x1BBC, symBinAddr: 0x100016D28, symSize: 0x60 }
  - { offsetInCU: 0xE59F, offset: 0x437C6, size: 0x8, addend: 0x0, symName: __ZNKSt3__16vectorINS_12basic_stringIcNS_11char_traitsIcEENS_9allocatorIcEEEENS4_IS6_EEE20__throw_length_errorB8ue170006Ev, symObjAddr: 0x1C1C, symBinAddr: 0x100016D88, symSize: 0x1C }
  - { offsetInCU: 0xE5C5, offset: 0x437EC, size: 0x8, addend: 0x0, symName: __ZNSt3__16vectorINS_12basic_stringIcNS_11char_traitsIcEENS_9allocatorIcEEEENS4_IS6_EEE7__allocB8ue170006Ev, symObjAddr: 0x1C78, symBinAddr: 0x100016DE4, symSize: 0x28 }
  - { offsetInCU: 0xE5EB, offset: 0x43812, size: 0x8, addend: 0x0, symName: __ZNSt3__16vectorINS_12basic_stringIcNS_11char_traitsIcEENS_9allocatorIcEEEENS4_IS6_EEE9__end_capB8ue170006Ev, symObjAddr: 0x1CA0, symBinAddr: 0x100016E0C, symSize: 0x28 }
  - { offsetInCU: 0xE611, offset: 0x43838, size: 0x8, addend: 0x0, symName: __ZNKSt3__16vectorINS_12basic_stringIcNS_11char_traitsIcEENS_9allocatorIcEEEENS4_IS6_EEE14__annotate_newB8ue170006Em, symObjAddr: 0x1CC8, symBinAddr: 0x100016E34, symSize: 0xC8 }
  - { offsetInCU: 0xE652, offset: 0x43879, size: 0x8, addend: 0x0, symName: __ZNSt3__116allocator_traitsINS_9allocatorINS_12basic_stringIcNS_11char_traitsIcEENS1_IcEEEEEEE8max_sizeB8ue170006IS7_vvEEmRKS7_, symObjAddr: 0x1DBC, symBinAddr: 0x100016EFC, symSize: 0x28 }
  - { offsetInCU: 0xE67D, offset: 0x438A4, size: 0x8, addend: 0x0, symName: __ZNKSt3__16vectorINS_12basic_stringIcNS_11char_traitsIcEENS_9allocatorIcEEEENS4_IS6_EEE7__allocB8ue170006Ev, symObjAddr: 0x1DE4, symBinAddr: 0x100016F24, symSize: 0x28 }
  - { offsetInCU: 0xE6A3, offset: 0x438CA, size: 0x8, addend: 0x0, symName: __ZNKSt3__117__compressed_pairIPNS_12basic_stringIcNS_11char_traitsIcEENS_9allocatorIcEEEENS4_IS6_EEE6secondB8ue170006Ev, symObjAddr: 0x1EC4, symBinAddr: 0x100016F4C, symSize: 0x24 }
  - { offsetInCU: 0xE6C9, offset: 0x438F0, size: 0x8, addend: 0x0, symName: __ZNKSt3__122__compressed_pair_elemINS_9allocatorINS_12basic_stringIcNS_11char_traitsIcEENS1_IcEEEEEELi1ELb1EE5__getB8ue170006Ev, symObjAddr: 0x1EE8, symBinAddr: 0x100016F70, symSize: 0x14 }
  - { offsetInCU: 0xE6EF, offset: 0x43916, size: 0x8, addend: 0x0, symName: __ZNSt3__19allocatorINS_12basic_stringIcNS_11char_traitsIcEENS0_IcEEEEE8allocateB8ue170006Em, symObjAddr: 0x1FE8, symBinAddr: 0x100016F84, symSize: 0x5C }
  - { offsetInCU: 0xE723, offset: 0x4394A, size: 0x8, addend: 0x0, symName: __ZNSt3__117__compressed_pairIPNS_12basic_stringIcNS_11char_traitsIcEENS_9allocatorIcEEEENS4_IS6_EEE6secondB8ue170006Ev, symObjAddr: 0x2148, symBinAddr: 0x100016FE0, symSize: 0x24 }
  - { offsetInCU: 0xE749, offset: 0x43970, size: 0x8, addend: 0x0, symName: __ZNSt3__122__compressed_pair_elemINS_9allocatorINS_12basic_stringIcNS_11char_traitsIcEENS1_IcEEEEEELi1ELb1EE5__getB8ue170006Ev, symObjAddr: 0x216C, symBinAddr: 0x100017004, symSize: 0x14 }
  - { offsetInCU: 0xE76F, offset: 0x43996, size: 0x8, addend: 0x0, symName: __ZNSt3__117__compressed_pairIPNS_12basic_stringIcNS_11char_traitsIcEENS_9allocatorIcEEEENS4_IS6_EEE5firstB8ue170006Ev, symObjAddr: 0x2180, symBinAddr: 0x100017018, symSize: 0x24 }
  - { offsetInCU: 0xE795, offset: 0x439BC, size: 0x8, addend: 0x0, symName: __ZNSt3__122__compressed_pair_elemIPNS_12basic_stringIcNS_11char_traitsIcEENS_9allocatorIcEEEELi0ELb0EE5__getB8ue170006Ev, symObjAddr: 0x21A4, symBinAddr: 0x10001703C, symSize: 0x14 }
  - { offsetInCU: 0xE7BB, offset: 0x439E2, size: 0x8, addend: 0x0, symName: __ZNKSt3__16vectorINS_12basic_stringIcNS_11char_traitsIcEENS_9allocatorIcEEEENS4_IS6_EEE31__annotate_contiguous_containerB8ue170006EPKvSA_SA_SA_, symObjAddr: 0x21B8, symBinAddr: 0x100017050, symSize: 0x20 }
  - { offsetInCU: 0xE80D, offset: 0x43A34, size: 0x8, addend: 0x0, symName: __ZNKSt3__16vectorINS_12basic_stringIcNS_11char_traitsIcEENS_9allocatorIcEEEENS4_IS6_EEE4dataB8ue170006Ev, symObjAddr: 0x21D8, symBinAddr: 0x100017070, symSize: 0x28 }
  - { offsetInCU: 0xE833, offset: 0x43A5A, size: 0x8, addend: 0x0, symName: __ZNKSt3__16vectorINS_12basic_stringIcNS_11char_traitsIcEENS_9allocatorIcEEEENS4_IS6_EEE8capacityB8ue170006Ev, symObjAddr: 0x2200, symBinAddr: 0x100017098, symSize: 0x40 }
  - { offsetInCU: 0xE859, offset: 0x43A80, size: 0x8, addend: 0x0, symName: __ZNKSt3__16vectorINS_12basic_stringIcNS_11char_traitsIcEENS_9allocatorIcEEEENS4_IS6_EEE9__end_capB8ue170006Ev, symObjAddr: 0x2254, symBinAddr: 0x1000170EC, symSize: 0x28 }
  - { offsetInCU: 0xE87F, offset: 0x43AA6, size: 0x8, addend: 0x0, symName: __ZNKSt3__117__compressed_pairIPNS_12basic_stringIcNS_11char_traitsIcEENS_9allocatorIcEEEENS4_IS6_EEE5firstB8ue170006Ev, symObjAddr: 0x227C, symBinAddr: 0x100017114, symSize: 0x24 }
  - { offsetInCU: 0xE8A5, offset: 0x43ACC, size: 0x8, addend: 0x0, symName: __ZNKSt3__122__compressed_pair_elemIPNS_12basic_stringIcNS_11char_traitsIcEENS_9allocatorIcEEEELi0ELb0EE5__getB8ue170006Ev, symObjAddr: 0x22A0, symBinAddr: 0x100017138, symSize: 0x14 }
  - { offsetInCU: 0xE8E9, offset: 0x43B10, size: 0x8, addend: 0x0, symName: __ZNSt3__16vectorINS_12basic_stringIcNS_11char_traitsIcEENS_9allocatorIcEEEENS4_IS6_EEE21_ConstructTransactionC1B8ue170006ERS8_m, symObjAddr: 0x22B4, symBinAddr: 0x10001714C, symSize: 0x3C }
  - { offsetInCU: 0xE931, offset: 0x43B58, size: 0x8, addend: 0x0, symName: __ZNSt3__16vectorINS_12basic_stringIcNS_11char_traitsIcEENS_9allocatorIcEEEENS4_IS6_EEE21_ConstructTransactionD1B8ue170006Ev, symObjAddr: 0x2370, symBinAddr: 0x100017208, symSize: 0x2C }
  - { offsetInCU: 0xE95B, offset: 0x43B82, size: 0x8, addend: 0x0, symName: __ZNSt3__16vectorINS_12basic_stringIcNS_11char_traitsIcEENS_9allocatorIcEEEENS4_IS6_EEE21_ConstructTransactionC2B8ue170006ERS8_m, symObjAddr: 0x239C, symBinAddr: 0x100017234, symSize: 0x4C }
  - { offsetInCU: 0xE9C1, offset: 0x43BE8, size: 0x8, addend: 0x0, symName: __ZNSt3__119__unwrap_range_implIPKNS_12basic_stringIcNS_11char_traitsIcEENS_9allocatorIcEEEES8_E8__unwrapB8ue170006ES8_S8_, symObjAddr: 0x2578, symBinAddr: 0x100017410, symSize: 0x58 }
  - { offsetInCU: 0xE9F8, offset: 0x43C1F, size: 0x8, addend: 0x0, symName: __ZNSt3__14pairIPKNS_12basic_stringIcNS_11char_traitsIcEENS_9allocatorIcEEEES8_EC1B8ue170006IS8_S8_LPv0EEEOT_OT0_, symObjAddr: 0x25F4, symBinAddr: 0x10001748C, symSize: 0x3C }
  - { offsetInCU: 0xEA56, offset: 0x43C7D, size: 0x8, addend: 0x0, symName: __ZNSt3__118__unwrap_iter_implIPKNS_12basic_stringIcNS_11char_traitsIcEENS_9allocatorIcEEEELb1EE8__unwrapB8ue170006ES8_, symObjAddr: 0x2630, symBinAddr: 0x1000174C8, symSize: 0x24 }
  - { offsetInCU: 0xEA79, offset: 0x43CA0, size: 0x8, addend: 0x0, symName: __ZNSt3__14pairIPKNS_12basic_stringIcNS_11char_traitsIcEENS_9allocatorIcEEEES8_EC2B8ue170006IS8_S8_LPv0EEEOT_OT0_, symObjAddr: 0x2668, symBinAddr: 0x100017500, symSize: 0x34 }
  - { offsetInCU: 0xEAD7, offset: 0x43CFE, size: 0x8, addend: 0x0, symName: __ZNSt3__129_AllocatorDestroyRangeReverseINS_9allocatorINS_12basic_stringIcNS_11char_traitsIcEENS1_IcEEEEEEPS6_EC1B8ue170006ERS7_RS8_SB_, symObjAddr: 0x26E8, symBinAddr: 0x100017580, symSize: 0x44 }
  - { offsetInCU: 0xEB2E, offset: 0x43D55, size: 0x8, addend: 0x0, symName: __ZNSt3__116allocator_traitsINS_9allocatorINS_12basic_stringIcNS_11char_traitsIcEENS1_IcEEEEEEE9constructB8ue170006IS6_JRKS6_EvvEEvRS7_PT_DpOT0_, symObjAddr: 0x272C, symBinAddr: 0x1000175C4, symSize: 0x30 }
  - { offsetInCU: 0xEB82, offset: 0x43DA9, size: 0x8, addend: 0x0, symName: __ZNSt3__128__exception_guard_exceptionsINS_29_AllocatorDestroyRangeReverseINS_9allocatorINS_12basic_stringIcNS_11char_traitsIcEENS2_IcEEEEEEPS7_EEE10__completeB8ue170006Ev, symObjAddr: 0x275C, symBinAddr: 0x1000175F4, symSize: 0x1C }
  - { offsetInCU: 0xEBA8, offset: 0x43DCF, size: 0x8, addend: 0x0, symName: __ZNSt3__128__exception_guard_exceptionsINS_29_AllocatorDestroyRangeReverseINS_9allocatorINS_12basic_stringIcNS_11char_traitsIcEENS2_IcEEEEEEPS7_EEED1B8ue170006Ev, symObjAddr: 0x2778, symBinAddr: 0x100017610, symSize: 0x2C }
  - { offsetInCU: 0xEBD2, offset: 0x43DF9, size: 0x8, addend: 0x0, symName: __ZNSt3__128__exception_guard_exceptionsINS_29_AllocatorDestroyRangeReverseINS_9allocatorINS_12basic_stringIcNS_11char_traitsIcEENS2_IcEEEEEEPS7_EEEC1B8ue170006ESA_, symObjAddr: 0x27A4, symBinAddr: 0x10001763C, symSize: 0x34 }
  - { offsetInCU: 0xEC0B, offset: 0x43E32, size: 0x8, addend: 0x0, symName: __ZNSt3__128__exception_guard_exceptionsINS_29_AllocatorDestroyRangeReverseINS_9allocatorINS_12basic_stringIcNS_11char_traitsIcEENS2_IcEEEEEEPS7_EEEC2B8ue170006ESA_, symObjAddr: 0x27D8, symBinAddr: 0x100017670, symSize: 0x30 }
  - { offsetInCU: 0xEC44, offset: 0x43E6B, size: 0x8, addend: 0x0, symName: __ZNSt3__129_AllocatorDestroyRangeReverseINS_9allocatorINS_12basic_stringIcNS_11char_traitsIcEENS1_IcEEEEEEPS6_EC2B8ue170006ERS7_RS8_SB_, symObjAddr: 0x2808, symBinAddr: 0x1000176A0, symSize: 0x38 }
  - { offsetInCU: 0xEC9B, offset: 0x43EC2, size: 0x8, addend: 0x0, symName: __ZNSt3__128__exception_guard_exceptionsINS_29_AllocatorDestroyRangeReverseINS_9allocatorINS_12basic_stringIcNS_11char_traitsIcEENS2_IcEEEEEEPS7_EEED2B8ue170006Ev, symObjAddr: 0x287C, symBinAddr: 0x100017714, symSize: 0x50 }
  - { offsetInCU: 0xECC5, offset: 0x43EEC, size: 0x8, addend: 0x0, symName: __ZNKSt3__129_AllocatorDestroyRangeReverseINS_9allocatorINS_12basic_stringIcNS_11char_traitsIcEENS1_IcEEEEEEPS6_EclB8ue170006Ev, symObjAddr: 0x28CC, symBinAddr: 0x100017764, symSize: 0x68 }
  - { offsetInCU: 0xECEB, offset: 0x43F12, size: 0x8, addend: 0x0, symName: __ZNSt3__116reverse_iteratorIPNS_12basic_stringIcNS_11char_traitsIcEENS_9allocatorIcEEEEEC1B8ue170006ES7_, symObjAddr: 0x29A4, symBinAddr: 0x10001783C, symSize: 0x34 }
  - { offsetInCU: 0xED23, offset: 0x43F4A, size: 0x8, addend: 0x0, symName: __ZNSt3__116allocator_traitsINS_9allocatorINS_12basic_stringIcNS_11char_traitsIcEENS1_IcEEEEEEE7destroyB8ue170006IS6_vvEEvRS7_PT_, symObjAddr: 0x2A20, symBinAddr: 0x1000178B8, symSize: 0x28 }
  - { offsetInCU: 0xED5D, offset: 0x43F84, size: 0x8, addend: 0x0, symName: __ZNSt3__116reverse_iteratorIPNS_12basic_stringIcNS_11char_traitsIcEENS_9allocatorIcEEEEEppB8ue170006Ev, symObjAddr: 0x2A6C, symBinAddr: 0x100017904, symSize: 0x20 }
  - { offsetInCU: 0xED83, offset: 0x43FAA, size: 0x8, addend: 0x0, symName: __ZNKSt3__116reverse_iteratorIPNS_12basic_stringIcNS_11char_traitsIcEENS_9allocatorIcEEEEE4baseB8ue170006Ev, symObjAddr: 0x2A8C, symBinAddr: 0x100017924, symSize: 0x18 }
  - { offsetInCU: 0xEDAF, offset: 0x43FD6, size: 0x8, addend: 0x0, symName: __ZNSt3__119__to_address_helperINS_16reverse_iteratorIPNS_12basic_stringIcNS_11char_traitsIcEENS_9allocatorIcEEEEEEvE6__callB8ue170006ERKS9_, symObjAddr: 0x2AEC, symBinAddr: 0x100017984, symSize: 0x38 }
  - { offsetInCU: 0xEDD2, offset: 0x43FF9, size: 0x8, addend: 0x0, symName: __ZNKSt3__116reverse_iteratorIPNS_12basic_stringIcNS_11char_traitsIcEENS_9allocatorIcEEEEEptB8ue170006Ev, symObjAddr: 0x2B24, symBinAddr: 0x1000179BC, symSize: 0x2C }
  - { offsetInCU: 0xEDF8, offset: 0x4401F, size: 0x8, addend: 0x0, symName: __ZNSt3__116reverse_iteratorIPNS_12basic_stringIcNS_11char_traitsIcEENS_9allocatorIcEEEEEC2B8ue170006ES7_, symObjAddr: 0x2C08, symBinAddr: 0x100017A8C, symSize: 0x28 }
  - { offsetInCU: 0xEE30, offset: 0x44057, size: 0x8, addend: 0x0, symName: __ZNSt3__118__unwrap_iter_implIPNS_12basic_stringIcNS_11char_traitsIcEENS_9allocatorIcEEEELb1EE8__unwrapB8ue170006ES7_, symObjAddr: 0x2C30, symBinAddr: 0x100017AB4, symSize: 0x24 }
  - { offsetInCU: 0xEE53, offset: 0x4407A, size: 0x8, addend: 0x0, symName: __ZNSt3__118__unwrap_iter_implIPNS_12basic_stringIcNS_11char_traitsIcEENS_9allocatorIcEEEELb1EE8__rewrapB8ue170006ES7_S7_, symObjAddr: 0x2C54, symBinAddr: 0x100017AD8, symSize: 0x58 }
  - { offsetInCU: 0xEE84, offset: 0x440AB, size: 0x8, addend: 0x0, symName: __ZNSt3__16vectorINS_12basic_stringIcNS_11char_traitsIcEENS_9allocatorIcEEEENS4_IS6_EEE21_ConstructTransactionD2B8ue170006Ev, symObjAddr: 0x2CAC, symBinAddr: 0x100017B30, symSize: 0x20 }
  - { offsetInCU: 0xEEAE, offset: 0x440D5, size: 0x8, addend: 0x0, symName: __ZNSt3__128__exception_guard_exceptionsINS_6vectorINS_12basic_stringIcNS_11char_traitsIcEENS_9allocatorIcEEEENS5_IS7_EEE16__destroy_vectorEED2B8ue170006Ev, symObjAddr: 0x2CCC, symBinAddr: 0x100017B50, symSize: 0x50 }
  - { offsetInCU: 0xEED8, offset: 0x440FF, size: 0x8, addend: 0x0, symName: __ZNSt3__16vectorINS_12basic_stringIcNS_11char_traitsIcEENS_9allocatorIcEEEENS4_IS6_EEE16__destroy_vectorclB8ue170006Ev, symObjAddr: 0x2D1C, symBinAddr: 0x100017BA0, symSize: 0x90 }
  - { offsetInCU: 0xEEFE, offset: 0x44125, size: 0x8, addend: 0x0, symName: __ZNSt3__16vectorINS_12basic_stringIcNS_11char_traitsIcEENS_9allocatorIcEEEENS4_IS6_EEE7__clearB8ue170006Ev, symObjAddr: 0x2DAC, symBinAddr: 0x100017C30, symSize: 0x28 }
  - { offsetInCU: 0xEF24, offset: 0x4414B, size: 0x8, addend: 0x0, symName: __ZNKSt3__16vectorINS_12basic_stringIcNS_11char_traitsIcEENS_9allocatorIcEEEENS4_IS6_EEE17__annotate_deleteB8ue170006Ev, symObjAddr: 0x2DD4, symBinAddr: 0x100017C58, symSize: 0xD4 }
  - { offsetInCU: 0xEF4A, offset: 0x44171, size: 0x8, addend: 0x0, symName: __ZNSt3__116allocator_traitsINS_9allocatorINS_12basic_stringIcNS_11char_traitsIcEENS1_IcEEEEEEE10deallocateB8ue170006ERS7_PS6_m, symObjAddr: 0x2EA8, symBinAddr: 0x100017D2C, symSize: 0x34 }
  - { offsetInCU: 0xEF8C, offset: 0x441B3, size: 0x8, addend: 0x0, symName: __ZNSt3__16vectorINS_12basic_stringIcNS_11char_traitsIcEENS_9allocatorIcEEEENS4_IS6_EEE22__base_destruct_at_endB8ue170006EPS6_, symObjAddr: 0x2EDC, symBinAddr: 0x100017D60, symSize: 0x8C }
  - { offsetInCU: 0xEFD0, offset: 0x441F7, size: 0x8, addend: 0x0, symName: __ZNSt3__19allocatorINS_12basic_stringIcNS_11char_traitsIcEENS0_IcEEEEE10deallocateB8ue170006EPS5_m, symObjAddr: 0x2F68, symBinAddr: 0x100017DEC, symSize: 0x44 }
  - { offsetInCU: 0xF012, offset: 0x44239, size: 0x8, addend: 0x0, symName: __ZNSt3__16vectorINS_12basic_stringIcNS_11char_traitsIcEENS_9allocatorIcEEEENS4_IS6_EEEC2ERKS8_, symObjAddr: 0x30B4, symBinAddr: 0x100017E30, symSize: 0x94 }
  - { offsetInCU: 0xF04D, offset: 0x44274, size: 0x8, addend: 0x0, symName: __ZNSt3__116allocator_traitsINS_9allocatorINS_12basic_stringIcNS_11char_traitsIcEENS1_IcEEEEEEE37select_on_container_copy_constructionB8ue170006IS7_vvEES7_RKS7_, symObjAddr: 0x3148, symBinAddr: 0x100017EC4, symSize: 0x10 }
  - { offsetInCU: 0xF082, offset: 0x442A9, size: 0x8, addend: 0x0, symName: __ZNSt3__117__compressed_pairIPNS_12basic_stringIcNS_11char_traitsIcEENS_9allocatorIcEEEENS4_IS6_EEEC1B8ue170006IDnS8_EEOT_OT0_, symObjAddr: 0x3158, symBinAddr: 0x100017ED4, symSize: 0x3C }
  - { offsetInCU: 0xF0DA, offset: 0x44301, size: 0x8, addend: 0x0, symName: __ZNSt3__16vectorINS_12basic_stringIcNS_11char_traitsIcEENS_9allocatorIcEEEENS4_IS6_EEE16__init_with_sizeB8ue170006IPS6_SA_EEvT_T0_m, symObjAddr: 0x3194, symBinAddr: 0x100017F10, symSize: 0xB8 }
  - { offsetInCU: 0xF14E, offset: 0x44375, size: 0x8, addend: 0x0, symName: __ZNSt3__117__compressed_pairIPNS_12basic_stringIcNS_11char_traitsIcEENS_9allocatorIcEEEENS4_IS6_EEEC2B8ue170006IDnS8_EEOT_OT0_, symObjAddr: 0x324C, symBinAddr: 0x100017FC8, symSize: 0x44 }
  - { offsetInCU: 0xF1A6, offset: 0x443CD, size: 0x8, addend: 0x0, symName: __ZNSt3__122__compressed_pair_elemINS_9allocatorINS_12basic_stringIcNS_11char_traitsIcEENS1_IcEEEEEELi1ELb1EEC2B8ue170006IS7_vEEOT_, symObjAddr: 0x3290, symBinAddr: 0x10001800C, symSize: 0x18 }
  - { offsetInCU: 0xF1E8, offset: 0x4440F, size: 0x8, addend: 0x0, symName: __ZNSt3__16vectorINS_12basic_stringIcNS_11char_traitsIcEENS_9allocatorIcEEEENS4_IS6_EEE18__construct_at_endIPS6_SA_EEvT_T0_m, symObjAddr: 0x32A8, symBinAddr: 0x100018024, symSize: 0x8C }
  - { offsetInCU: 0xF27C, offset: 0x444A3, size: 0x8, addend: 0x0, symName: __ZNSt3__119__unwrap_range_implIPNS_12basic_stringIcNS_11char_traitsIcEENS_9allocatorIcEEEES7_E8__unwrapB8ue170006ES7_S7_, symObjAddr: 0x34E4, symBinAddr: 0x100018260, symSize: 0x58 }
  - { offsetInCU: 0xF2B3, offset: 0x444DA, size: 0x8, addend: 0x0, symName: __ZNSt3__14pairIPNS_12basic_stringIcNS_11char_traitsIcEENS_9allocatorIcEEEES7_EC1B8ue170006IS7_S7_LPv0EEEOT_OT0_, symObjAddr: 0x353C, symBinAddr: 0x1000182B8, symSize: 0x3C }
  - { offsetInCU: 0xF311, offset: 0x44538, size: 0x8, addend: 0x0, symName: __ZNSt3__14pairIPNS_12basic_stringIcNS_11char_traitsIcEENS_9allocatorIcEEEES7_EC2B8ue170006IS7_S7_LPv0EEEOT_OT0_, symObjAddr: 0x3578, symBinAddr: 0x1000182F4, symSize: 0x34 }
  - { offsetInCU: 0xF36F, offset: 0x44596, size: 0x8, addend: 0x0, symName: __ZNSt3__116allocator_traitsINS_9allocatorINS_12basic_stringIcNS_11char_traitsIcEENS1_IcEEEEEEE9constructB8ue170006IS6_JRS6_EvvEEvRS7_PT_DpOT0_, symObjAddr: 0x35AC, symBinAddr: 0x100018328, symSize: 0x30 }
  - { offsetInCU: 0xF3C3, offset: 0x445EA, size: 0x8, addend: 0x0, symName: __ZNSt3__112basic_stringIcNS_11char_traitsIcEENS_9allocatorIcEEE13__move_assignB8ue170006ERS5_NS_17integral_constantIbLb1EEE, symObjAddr: 0x3618, symBinAddr: 0x100018394, symSize: 0xC8 }
  - { offsetInCU: 0xF405, offset: 0x4462C, size: 0x8, addend: 0x0, symName: __ZNKSt3__112basic_stringIcNS_11char_traitsIcEENS_9allocatorIcEEE14__get_long_capB8ue170006Ev, symObjAddr: 0x3798, symBinAddr: 0x10001845C, symSize: 0x30 }
  - { offsetInCU: 0xF42B, offset: 0x44652, size: 0x8, addend: 0x0, symName: __ZNSt3__112basic_stringIcNS_11char_traitsIcEENS_9allocatorIcEEE19__move_assign_allocB8ue170006ERS5_, symObjAddr: 0x37C8, symBinAddr: 0x10001848C, symSize: 0x2C }
  - { offsetInCU: 0xF460, offset: 0x44687, size: 0x8, addend: 0x0, symName: __ZNSt3__112basic_stringIcNS_11char_traitsIcEENS_9allocatorIcEEE19__move_assign_allocB8ue170006ERS5_NS_17integral_constantIbLb1EEE, symObjAddr: 0x3968, symBinAddr: 0x1000184B8, symSize: 0x38 }
  - { offsetInCU: 0xF4A0, offset: 0x446C7, size: 0x8, addend: 0x0, symName: __ZNSt3__16vectorINS_12basic_stringIcNS_11char_traitsIcEENS_9allocatorIcEEEENS4_IS6_EEED2B8ue170006Ev, symObjAddr: 0x39B4, symBinAddr: 0x1000184F0, symSize: 0x40 }
  - { offsetInCU: 0xF578, offset: 0x4479F, size: 0x8, addend: 0x0, symName: __ZNSt3__115basic_streambufIcNS_11char_traitsIcEEE5sgetcB8ue170006Ev, symObjAddr: 0x469C, symBinAddr: 0x100018530, symSize: 0x70 }
  - { offsetInCU: 0xF59E, offset: 0x447C5, size: 0x8, addend: 0x0, symName: __ZNKSt3__15ctypeIcE2isB8ue170006Ejc, symObjAddr: 0x4724, symBinAddr: 0x1000185A0, symSize: 0x7C }
  - { offsetInCU: 0xF5E1, offset: 0x44808, size: 0x8, addend: 0x0, symName: __Z7isasciii, symObjAddr: 0x4970, symBinAddr: 0x10001861C, symSize: 0x24 }
  - { offsetInCU: 0xF60E, offset: 0x44835, size: 0x8, addend: 0x0, symName: __ZNSt3__13mapINS_12basic_stringIcNS_11char_traitsIcEENS_9allocatorIcEEEEiNS_4lessIS6_EENS4_INS_4pairIKS6_iEEEEEC2B8ue170006ERKSD_, symObjAddr: 0x4DA4, symBinAddr: 0x100018640, symSize: 0x88 }
  - { offsetInCU: 0xF647, offset: 0x4486E, size: 0x8, addend: 0x0, symName: __ZNSt3__16__treeINS_12__value_typeINS_12basic_stringIcNS_11char_traitsIcEENS_9allocatorIcEEEEiEENS_19__map_value_compareIS7_S8_NS_4lessIS7_EELb1EEENS5_IS8_EEEC1ERKSE_, symObjAddr: 0x4E2C, symBinAddr: 0x1000186C8, symSize: 0x34 }
  - { offsetInCU: 0xF682, offset: 0x448A9, size: 0x8, addend: 0x0, symName: __ZNSt3__13mapINS_12basic_stringIcNS_11char_traitsIcEENS_9allocatorIcEEEEiNS_4lessIS6_EENS4_INS_4pairIKS6_iEEEEE6insertB8ue170006INS_20__map_const_iteratorINS_21__tree_const_iteratorINS_12__value_typeIS6_iEEPNS_11__tree_nodeISI_PvEElEEEEEEvT_SP_, symObjAddr: 0x4E60, symBinAddr: 0x1000186FC, symSize: 0x8C }
  - { offsetInCU: 0xF6EC, offset: 0x44913, size: 0x8, addend: 0x0, symName: __ZNKSt3__13mapINS_12basic_stringIcNS_11char_traitsIcEENS_9allocatorIcEEEEiNS_4lessIS6_EENS4_INS_4pairIKS6_iEEEEE5beginB8ue170006Ev, symObjAddr: 0x4EEC, symBinAddr: 0x100018788, symSize: 0x38 }
  - { offsetInCU: 0xF712, offset: 0x44939, size: 0x8, addend: 0x0, symName: __ZNKSt3__13mapINS_12basic_stringIcNS_11char_traitsIcEENS_9allocatorIcEEEEiNS_4lessIS6_EENS4_INS_4pairIKS6_iEEEEE3endB8ue170006Ev, symObjAddr: 0x4F24, symBinAddr: 0x1000187C0, symSize: 0x38 }
  - { offsetInCU: 0xF738, offset: 0x4495F, size: 0x8, addend: 0x0, symName: __ZNSt3__16__treeINS_12__value_typeINS_12basic_stringIcNS_11char_traitsIcEENS_9allocatorIcEEEEiEENS_19__map_value_compareIS7_S8_NS_4lessIS7_EELb1EEENS5_IS8_EEEC2ERKSE_, symObjAddr: 0x4F5C, symBinAddr: 0x1000187F8, symSize: 0x9C }
  - { offsetInCU: 0xF77F, offset: 0x449A6, size: 0x8, addend: 0x0, symName: __ZNSt3__116allocator_traitsINS_9allocatorINS_11__tree_nodeINS_12__value_typeINS_12basic_stringIcNS_11char_traitsIcEENS1_IcEEEEiEEPvEEEEE37select_on_container_copy_constructionB8ue170006ISC_vvEESC_RKSC_, symObjAddr: 0x4FF8, symBinAddr: 0x100018894, symSize: 0x10 }
  - { offsetInCU: 0xF7AE, offset: 0x449D5, size: 0x8, addend: 0x0, symName: __ZNKSt3__16__treeINS_12__value_typeINS_12basic_stringIcNS_11char_traitsIcEENS_9allocatorIcEEEEiEENS_19__map_value_compareIS7_S8_NS_4lessIS7_EELb1EEENS5_IS8_EEE12__node_allocB8ue170006Ev, symObjAddr: 0x5008, symBinAddr: 0x1000188A4, symSize: 0x28 }
  - { offsetInCU: 0xF7DA, offset: 0x44A01, size: 0x8, addend: 0x0, symName: __ZNSt3__117__compressed_pairINS_15__tree_end_nodeIPNS_16__tree_node_baseIPvEEEENS_9allocatorINS_11__tree_nodeINS_12__value_typeINS_12basic_stringIcNS_11char_traitsIcEENS7_IcEEEEiEES3_EEEEEC1B8ue170006INS_18__default_init_tagESH_EEOT_OT0_, symObjAddr: 0x5030, symBinAddr: 0x1000188CC, symSize: 0x3C }
  - { offsetInCU: 0xF832, offset: 0x44A59, size: 0x8, addend: 0x0, symName: __ZNKSt3__16__treeINS_12__value_typeINS_12basic_stringIcNS_11char_traitsIcEENS_9allocatorIcEEEEiEENS_19__map_value_compareIS7_S8_NS_4lessIS7_EELb1EEENS5_IS8_EEE10value_compB8ue170006Ev, symObjAddr: 0x506C, symBinAddr: 0x100018908, symSize: 0x28 }
  - { offsetInCU: 0xF858, offset: 0x44A7F, size: 0x8, addend: 0x0, symName: __ZNKSt3__117__compressed_pairINS_15__tree_end_nodeIPNS_16__tree_node_baseIPvEEEENS_9allocatorINS_11__tree_nodeINS_12__value_typeINS_12basic_stringIcNS_11char_traitsIcEENS7_IcEEEEiEES3_EEEEE6secondB8ue170006Ev, symObjAddr: 0x5110, symBinAddr: 0x100018930, symSize: 0x24 }
  - { offsetInCU: 0xF87E, offset: 0x44AA5, size: 0x8, addend: 0x0, symName: __ZNKSt3__122__compressed_pair_elemINS_9allocatorINS_11__tree_nodeINS_12__value_typeINS_12basic_stringIcNS_11char_traitsIcEENS1_IcEEEEiEEPvEEEELi1ELb1EE5__getB8ue170006Ev, symObjAddr: 0x5134, symBinAddr: 0x100018954, symSize: 0x14 }
  - { offsetInCU: 0xF8A4, offset: 0x44ACB, size: 0x8, addend: 0x0, symName: __ZNSt3__117__compressed_pairINS_15__tree_end_nodeIPNS_16__tree_node_baseIPvEEEENS_9allocatorINS_11__tree_nodeINS_12__value_typeINS_12basic_stringIcNS_11char_traitsIcEENS7_IcEEEEiEES3_EEEEEC2B8ue170006INS_18__default_init_tagESH_EEOT_OT0_, symObjAddr: 0x5148, symBinAddr: 0x100018968, symSize: 0x40 }
  - { offsetInCU: 0xF8FC, offset: 0x44B23, size: 0x8, addend: 0x0, symName: __ZNSt3__122__compressed_pair_elemINS_9allocatorINS_11__tree_nodeINS_12__value_typeINS_12basic_stringIcNS_11char_traitsIcEENS1_IcEEEEiEEPvEEEELi1ELb1EEC2B8ue170006ISC_vEEOT_, symObjAddr: 0x51B4, symBinAddr: 0x1000189A8, symSize: 0x18 }
  - { offsetInCU: 0xF93E, offset: 0x44B65, size: 0x8, addend: 0x0, symName: __ZNKSt3__117__compressed_pairImNS_19__map_value_compareINS_12basic_stringIcNS_11char_traitsIcEENS_9allocatorIcEEEENS_12__value_typeIS7_iEENS_4lessIS7_EELb1EEEE6secondB8ue170006Ev, symObjAddr: 0x5210, symBinAddr: 0x1000189C0, symSize: 0x24 }
  - { offsetInCU: 0xF964, offset: 0x44B8B, size: 0x8, addend: 0x0, symName: __ZNKSt3__122__compressed_pair_elemINS_19__map_value_compareINS_12basic_stringIcNS_11char_traitsIcEENS_9allocatorIcEEEENS_12__value_typeIS7_iEENS_4lessIS7_EELb1EEELi1ELb1EE5__getB8ue170006Ev, symObjAddr: 0x5234, symBinAddr: 0x1000189E4, symSize: 0x14 }
  - { offsetInCU: 0xF98A, offset: 0x44BB1, size: 0x8, addend: 0x0, symName: __ZNKSt3__13mapINS_12basic_stringIcNS_11char_traitsIcEENS_9allocatorIcEEEEiNS_4lessIS6_EENS4_INS_4pairIKS6_iEEEEE4cendB8ue170006Ev, symObjAddr: 0x5300, symBinAddr: 0x1000189F8, symSize: 0x2C }
  - { offsetInCU: 0xF9B0, offset: 0x44BD7, size: 0x8, addend: 0x0, symName: __ZNSt3__13mapINS_12basic_stringIcNS_11char_traitsIcEENS_9allocatorIcEEEEiNS_4lessIS6_EENS4_INS_4pairIKS6_iEEEEE6insertB8ue170006ENS_20__map_const_iteratorINS_21__tree_const_iteratorINS_12__value_typeIS6_iEEPNS_11__tree_nodeISH_PvEElEEEERKSB_, symObjAddr: 0x535C, symBinAddr: 0x100018A54, symSize: 0x50 }
  - { offsetInCU: 0xF9F4, offset: 0x44C1B, size: 0x8, addend: 0x0, symName: __ZNSt3__120__map_const_iteratorINS_21__tree_const_iteratorINS_12__value_typeINS_12basic_stringIcNS_11char_traitsIcEENS_9allocatorIcEEEEiEEPNS_11__tree_nodeIS9_PvEElEEEC1B8ue170006ESE_, symObjAddr: 0x53AC, symBinAddr: 0x100018AA4, symSize: 0x34 }
  - { offsetInCU: 0xFA2D, offset: 0x44C54, size: 0x8, addend: 0x0, symName: __ZNKSt3__120__map_const_iteratorINS_21__tree_const_iteratorINS_12__value_typeINS_12basic_stringIcNS_11char_traitsIcEENS_9allocatorIcEEEEiEEPNS_11__tree_nodeIS9_PvEElEEEdeB8ue170006Ev, symObjAddr: 0x53E0, symBinAddr: 0x100018AD8, symSize: 0x28 }
  - { offsetInCU: 0xFA53, offset: 0x44C7A, size: 0x8, addend: 0x0, symName: __ZNSt3__120__map_const_iteratorINS_21__tree_const_iteratorINS_12__value_typeINS_12basic_stringIcNS_11char_traitsIcEENS_9allocatorIcEEEEiEEPNS_11__tree_nodeIS9_PvEElEEEppB8ue170006Ev, symObjAddr: 0x5408, symBinAddr: 0x100018B00, symSize: 0x2C }
  - { offsetInCU: 0xFA79, offset: 0x44CA0, size: 0x8, addend: 0x0, symName: __ZNSt3__16__treeINS_12__value_typeINS_12basic_stringIcNS_11char_traitsIcEENS_9allocatorIcEEEEiEENS_19__map_value_compareIS7_S8_NS_4lessIS7_EELb1EEENS5_IS8_EEE15__insert_uniqueB8ue170006ENS_21__tree_const_iteratorIS8_PNS_11__tree_nodeIS8_PvEElEERKNS_4pairIKS7_iEE, symObjAddr: 0x5498, symBinAddr: 0x100018B90, symSize: 0x64 }
  - { offsetInCU: 0xFABD, offset: 0x44CE4, size: 0x8, addend: 0x0, symName: __ZNSt3__16__treeINS_12__value_typeINS_12basic_stringIcNS_11char_traitsIcEENS_9allocatorIcEEEEiEENS_19__map_value_compareIS7_S8_NS_4lessIS7_EELb1EEENS5_IS8_EEE30__emplace_hint_unique_key_argsIS7_JRKNS_4pairIKS7_iEEEEENSG_INS_15__tree_iteratorIS8_PNS_11__tree_nodeIS8_PvEElEEbEENS_21__tree_const_iteratorIS8_SP_lEERKT_DpOT0_, symObjAddr: 0x5530, symBinAddr: 0x100018BF4, symSize: 0x104 }
  - { offsetInCU: 0xFB89, offset: 0x44DB0, size: 0x8, addend: 0x0, symName: __ZNSt3__122__tree_key_value_typesINS_12__value_typeINS_12basic_stringIcNS_11char_traitsIcEENS_9allocatorIcEEEEiEEE9__get_keyB8ue170006IKNS_4pairIKS7_iEEEENS_9enable_ifIXsr17__is_same_uncvrefIT_SD_EE5valueERSC_E4typeERSG_, symObjAddr: 0x5634, symBinAddr: 0x100018CF8, symSize: 0x14 }
  - { offsetInCU: 0xFBB6, offset: 0x44DDD, size: 0x8, addend: 0x0, symName: __ZNSt3__16__treeINS_12__value_typeINS_12basic_stringIcNS_11char_traitsIcEENS_9allocatorIcEEEEiEENS_19__map_value_compareIS7_S8_NS_4lessIS7_EELb1EEENS5_IS8_EEE12__find_equalIS7_EERPNS_16__tree_node_baseIPvEENS_21__tree_const_iteratorIS8_PNS_11__tree_nodeIS8_SH_EElEERPNS_15__tree_end_nodeISJ_EESK_RKT_, symObjAddr: 0x5648, symBinAddr: 0x100018D0C, symSize: 0x304 }
  - { offsetInCU: 0xFC5F, offset: 0x44E86, size: 0x8, addend: 0x0, symName: __ZNSt3__16__treeINS_12__value_typeINS_12basic_stringIcNS_11char_traitsIcEENS_9allocatorIcEEEEiEENS_19__map_value_compareIS7_S8_NS_4lessIS7_EELb1EEENS5_IS8_EEE16__construct_nodeIJRKNS_4pairIKS7_iEEEEENS_10unique_ptrINS_11__tree_nodeIS8_PvEENS_22__tree_node_destructorINS5_ISO_EEEEEEDpOT_, symObjAddr: 0x594C, symBinAddr: 0x100019010, symSize: 0x110 }
  - { offsetInCU: 0xFCC6, offset: 0x44EED, size: 0x8, addend: 0x0, symName: __ZNSt3__121__tree_const_iteratorINS_12__value_typeINS_12basic_stringIcNS_11char_traitsIcEENS_9allocatorIcEEEEiEEPNS_11__tree_nodeIS8_PvEElEC1B8ue170006ENS_15__tree_iteratorIS8_SC_lEE, symObjAddr: 0x5C64, symBinAddr: 0x100019120, symSize: 0x34 }
  - { offsetInCU: 0xFCFF, offset: 0x44F26, size: 0x8, addend: 0x0, symName: __ZNKSt3__121__tree_const_iteratorINS_12__value_typeINS_12basic_stringIcNS_11char_traitsIcEENS_9allocatorIcEEEEiEEPNS_11__tree_nodeIS8_PvEElEdeB8ue170006Ev, symObjAddr: 0x5D10, symBinAddr: 0x100019154, symSize: 0x28 }
  - { offsetInCU: 0xFD25, offset: 0x44F4C, size: 0x8, addend: 0x0, symName: __ZNSt3__121__tree_const_iteratorINS_12__value_typeINS_12basic_stringIcNS_11char_traitsIcEENS_9allocatorIcEEEEiEEPNS_11__tree_nodeIS8_PvEElEmmB8ue170006Ev, symObjAddr: 0x5DB4, symBinAddr: 0x10001917C, symSize: 0x38 }
  - { offsetInCU: 0xFD4B, offset: 0x44F72, size: 0x8, addend: 0x0, symName: __ZNKSt3__121__tree_const_iteratorINS_12__value_typeINS_12basic_stringIcNS_11char_traitsIcEENS_9allocatorIcEEEEiEEPNS_11__tree_nodeIS8_PvEElE8__get_npB8ue170006Ev, symObjAddr: 0x5FAC, symBinAddr: 0x1000191F0, symSize: 0x18 }
  - { offsetInCU: 0xFD71, offset: 0x44F98, size: 0x8, addend: 0x0, symName: __ZNSt3__121__tree_const_iteratorINS_12__value_typeINS_12basic_stringIcNS_11char_traitsIcEENS_9allocatorIcEEEEiEEPNS_11__tree_nodeIS8_PvEElEC2B8ue170006ENS_15__tree_iteratorIS8_SC_lEE, symObjAddr: 0x6018, symBinAddr: 0x100019208, symSize: 0x20 }
  - { offsetInCU: 0xFDAA, offset: 0x44FD1, size: 0x8, addend: 0x0, symName: __ZNSt3__121__tree_const_iteratorINS_12__value_typeINS_12basic_stringIcNS_11char_traitsIcEENS_9allocatorIcEEEEiEEPNS_11__tree_nodeIS8_PvEElEppB8ue170006Ev, symObjAddr: 0x66B0, symBinAddr: 0x100019304, symSize: 0x38 }
  - { offsetInCU: 0xFDD0, offset: 0x44FF7, size: 0x8, addend: 0x0, symName: __ZNSt3__116allocator_traitsINS_9allocatorINS_11__tree_nodeINS_12__value_typeINS_12basic_stringIcNS_11char_traitsIcEENS1_IcEEEEiEEPvEEEEE9constructB8ue170006INS_4pairIKS8_iEEJRKSH_EvvEEvRSC_PT_DpOT0_, symObjAddr: 0x6858, symBinAddr: 0x10001933C, symSize: 0x30 }
  - { offsetInCU: 0xFE24, offset: 0x4504B, size: 0x8, addend: 0x0, symName: __ZNSt3__14pairIKNS_12basic_stringIcNS_11char_traitsIcEENS_9allocatorIcEEEEiEC1B8ue170006ERKS8_, symObjAddr: 0x6ADC, symBinAddr: 0x1000193A8, symSize: 0x34 }
  - { offsetInCU: 0xFE58, offset: 0x4507F, size: 0x8, addend: 0x0, symName: __ZNSt3__14pairIKNS_12basic_stringIcNS_11char_traitsIcEENS_9allocatorIcEEEEiEC2B8ue170006ERKS8_, symObjAddr: 0x6B10, symBinAddr: 0x1000193DC, symSize: 0x40 }
  - { offsetInCU: 0xFE8C, offset: 0x450B3, size: 0x8, addend: 0x0, symName: __ZNSt3__120__map_const_iteratorINS_21__tree_const_iteratorINS_12__value_typeINS_12basic_stringIcNS_11char_traitsIcEENS_9allocatorIcEEEEiEEPNS_11__tree_nodeIS9_PvEElEEEC2B8ue170006ESE_, symObjAddr: 0x7254, symBinAddr: 0x10001941C, symSize: 0x20 }
  - { offsetInCU: 0xFEC5, offset: 0x450EC, size: 0x8, addend: 0x0, symName: __ZNKSt3__121__tree_const_iteratorINS_12__value_typeINS_12basic_stringIcNS_11char_traitsIcEENS_9allocatorIcEEEEiEEPNS_11__tree_nodeIS8_PvEElEptB8ue170006Ev, symObjAddr: 0x7274, symBinAddr: 0x10001943C, symSize: 0x2C }
  - { offsetInCU: 0xFEEB, offset: 0x45112, size: 0x8, addend: 0x0, symName: __ZNSt3__114pointer_traitsIPKNS_12__value_typeINS_12basic_stringIcNS_11char_traitsIcEENS_9allocatorIcEEEEiEEE10pointer_toB8ue170006ERS9_, symObjAddr: 0x72A0, symBinAddr: 0x100019468, symSize: 0x14 }
  - { offsetInCU: 0xFF0E, offset: 0x45135, size: 0x8, addend: 0x0, symName: __ZNKSt3__16__treeINS_12__value_typeINS_12basic_stringIcNS_11char_traitsIcEENS_9allocatorIcEEEEiEENS_19__map_value_compareIS7_S8_NS_4lessIS7_EELb1EEENS5_IS8_EEE5beginB8ue170006Ev, symObjAddr: 0x72B4, symBinAddr: 0x10001947C, symSize: 0x34 }
  - { offsetInCU: 0xFF34, offset: 0x4515B, size: 0x8, addend: 0x0, symName: __ZNKSt3__16__treeINS_12__value_typeINS_12basic_stringIcNS_11char_traitsIcEENS_9allocatorIcEEEEiEENS_19__map_value_compareIS7_S8_NS_4lessIS7_EELb1EEENS5_IS8_EEE12__begin_nodeB8ue170006Ev, symObjAddr: 0x72E8, symBinAddr: 0x1000194B0, symSize: 0x14 }
  - { offsetInCU: 0xFF5A, offset: 0x45181, size: 0x8, addend: 0x0, symName: __ZNSt3__121__tree_const_iteratorINS_12__value_typeINS_12basic_stringIcNS_11char_traitsIcEENS_9allocatorIcEEEEiEEPNS_11__tree_nodeIS8_PvEElEC1B8ue170006EPNS_15__tree_end_nodeIPNS_16__tree_node_baseISA_EEEE, symObjAddr: 0x72FC, symBinAddr: 0x1000194C4, symSize: 0x34 }
  - { offsetInCU: 0xFF93, offset: 0x451BA, size: 0x8, addend: 0x0, symName: __ZNSt3__121__tree_const_iteratorINS_12__value_typeINS_12basic_stringIcNS_11char_traitsIcEENS_9allocatorIcEEEEiEEPNS_11__tree_nodeIS8_PvEElEC2B8ue170006EPNS_15__tree_end_nodeIPNS_16__tree_node_baseISA_EEEE, symObjAddr: 0x7330, symBinAddr: 0x1000194F8, symSize: 0x20 }
  - { offsetInCU: 0xFFCC, offset: 0x451F3, size: 0x8, addend: 0x0, symName: __ZNKSt3__16__treeINS_12__value_typeINS_12basic_stringIcNS_11char_traitsIcEENS_9allocatorIcEEEEiEENS_19__map_value_compareIS7_S8_NS_4lessIS7_EELb1EEENS5_IS8_EEE3endB8ue170006Ev, symObjAddr: 0x7350, symBinAddr: 0x100019518, symSize: 0x34 }
  - { offsetInCU: 0x4FC3, offset: 0x4A2BF, size: 0x8, addend: 0x0, symName: __ZNSt3__112construct_atB8ue170006IcJcEPcEEPT_S3_DpOT0_, symObjAddr: 0xD08, symBinAddr: 0x100019CB0, symSize: 0x2C }
  - { offsetInCU: 0x736D, offset: 0x4C669, size: 0x8, addend: 0x0, symName: __Z13normalizeDictNSt3__13mapINS_12basic_stringIcNS_11char_traitsIcEENS_9allocatorIcEEEEdNS_4lessIS6_EENS4_INS_4pairIKS6_dEEEEEE, symObjAddr: 0xA8, symBinAddr: 0x1000196A8, symSize: 0x1B4 }
  - { offsetInCU: 0x73C5, offset: 0x4C6C1, size: 0x8, addend: 0x0, symName: __Z11getAlphabetv, symObjAddr: 0x42C, symBinAddr: 0x10001985C, symSize: 0xD8 }
  - { offsetInCU: 0x7414, offset: 0x4C710, size: 0x8, addend: 0x0, symName: __ZNSt3__16vectorIcNS_9allocatorIcEEE12emplace_backIJcEEERcDpOT_, symObjAddr: 0x530, symBinAddr: 0x100019934, symSize: 0x74 }
  - { offsetInCU: 0x7456, offset: 0x4C752, size: 0x8, addend: 0x0, symName: __Z20getAlphabetWithoutSHv, symObjAddr: 0x5D0, symBinAddr: 0x1000199A8, symSize: 0x170 }
  - { offsetInCU: 0x74DE, offset: 0x4C7DA, size: 0x8, addend: 0x0, symName: __ZNSt3__16vectorIcNS_9allocatorIcEEE22__construct_one_at_endB8ue170006IJcEEEvDpOT_, symObjAddr: 0xA34, symBinAddr: 0x100019B18, symSize: 0x90 }
  - { offsetInCU: 0x752C, offset: 0x4C828, size: 0x8, addend: 0x0, symName: __ZNSt3__16vectorIcNS_9allocatorIcEEE24__emplace_back_slow_pathIJcEEEvDpOT_, symObjAddr: 0xAC4, symBinAddr: 0x100019BA8, symSize: 0xD8 }
  - { offsetInCU: 0x75AB, offset: 0x4C8A7, size: 0x8, addend: 0x0, symName: __ZNSt3__116allocator_traitsINS_9allocatorIcEEE9constructB8ue170006IcJcEvvEEvRS2_PT_DpOT0_, symObjAddr: 0xC2C, symBinAddr: 0x100019C80, symSize: 0x30 }
...
